
main.elf:     file format elf32-avr


Disassembly of section .text:

00000000 <__vectors>:
       0:	9b c0       	rjmp	.+310    	; 0x138 <__ctors_end>
       2:	05 c5       	rjmp	.+2570   	; 0xa0e <__vector_1>
       4:	13 c5       	rjmp	.+2598   	; 0xa2c <__vector_2>
       6:	b3 c0       	rjmp	.+358    	; 0x16e <__bad_interrupt>
       8:	b2 c0       	rjmp	.+356    	; 0x16e <__bad_interrupt>
       a:	b1 c0       	rjmp	.+354    	; 0x16e <__bad_interrupt>
       c:	b0 c0       	rjmp	.+352    	; 0x16e <__bad_interrupt>
       e:	af c0       	rjmp	.+350    	; 0x16e <__bad_interrupt>
      10:	ae c0       	rjmp	.+348    	; 0x16e <__bad_interrupt>
      12:	d8 c4       	rjmp	.+2480   	; 0x9c4 <__vector_9>
      14:	ac c0       	rjmp	.+344    	; 0x16e <__bad_interrupt>
      16:	ab c0       	rjmp	.+342    	; 0x16e <__bad_interrupt>
      18:	aa c0       	rjmp	.+340    	; 0x16e <__bad_interrupt>
      1a:	a9 c0       	rjmp	.+338    	; 0x16e <__bad_interrupt>
      1c:	a8 c0       	rjmp	.+336    	; 0x16e <__bad_interrupt>
      1e:	a7 c0       	rjmp	.+334    	; 0x16e <__bad_interrupt>
      20:	a6 c0       	rjmp	.+332    	; 0x16e <__bad_interrupt>
      22:	a5 c0       	rjmp	.+330    	; 0x16e <__bad_interrupt>
      24:	a4 c0       	rjmp	.+328    	; 0x16e <__bad_interrupt>

00000026 <__c.1778>:
      26:	6e 61       	ori	r22, 0x1E	; 30
      28:	6e 00       	.word	0x006e	; ????

0000002a <__c.1776>:
      2a:	69 6e       	ori	r22, 0xE9	; 233
      2c:	66 00       	.word	0x0066	; ????

0000002e <hello_msg>:
      2e:	48 65       	ori	r20, 0x58	; 88
      30:	6c 6c       	ori	r22, 0xCC	; 204
      32:	6f 2e       	mov	r6, r31
      34:	2e 2e       	mov	r2, r30
	...

00000037 <buy_msg>:
      37:	42 75       	andi	r20, 0x52	; 82
      39:	79 2e       	mov	r7, r25
      3b:	2e 2e       	mov	r2, r30
      3d:	00 00       	nop
      3f:	40 7a       	andi	r20, 0xA0	; 160
      41:	10 f3       	brcs	.-60     	; 0x7 <__zero_reg__+0x6>
      43:	5a 00       	.word	0x005a	; ????
      45:	a0 72       	andi	r26, 0x20	; 32
      47:	4e 18       	sub	r4, r14
      49:	09 00       	.word	0x0009	; ????
      4b:	10 a5       	ldd	r17, Z+40	; 0x28
      4d:	d4 e8       	ldi	r29, 0x84	; 132
      4f:	00 00       	nop
      51:	e8 76       	andi	r30, 0x68	; 104
      53:	48 17       	cp	r20, r24
      55:	00 00       	nop
      57:	e4 0b       	sbc	r30, r20
      59:	54 02       	muls	r21, r20
      5b:	00 00       	nop
      5d:	ca 9a       	sbi	0x19, 2	; 25
      5f:	3b 00       	.word	0x003b	; ????
      61:	00 00       	nop
      63:	e1 f5       	brne	.+120    	; 0xdd <__SREG__+0x9e>
      65:	05 00       	.word	0x0005	; ????
      67:	00 80       	ld	r0, Z
      69:	96 98       	cbi	0x12, 6	; 18
      6b:	00 00       	nop
      6d:	00 40       	sbci	r16, 0x00	; 0
      6f:	42 0f       	add	r20, r18
      71:	00 00       	nop
      73:	00 a0       	ldd	r0, Z+32	; 0x20
      75:	86 01       	movw	r16, r12
      77:	00 00       	nop
      79:	00 10       	cpse	r0, r0
      7b:	27 00       	.word	0x0027	; ????
      7d:	00 00       	nop
      7f:	00 e8       	ldi	r16, 0x80	; 128
      81:	03 00       	.word	0x0003	; ????
      83:	00 00       	nop
      85:	00 64       	ori	r16, 0x40	; 64
      87:	00 00       	nop
      89:	00 00       	nop
      8b:	00 0a       	sbc	r0, r16
      8d:	00 00       	nop
      8f:	00 00       	nop
      91:	00 01       	movw	r0, r0
      93:	00 00       	nop
      95:	00 00       	nop
      97:	00 2c       	mov	r0, r0
      99:	76 d8       	rcall	.-3860   	; 0xfffff187 <__eeprom_end+0xff7ef187>
      9b:	88 dc       	rcall	.-1776   	; 0xfffff9ad <__eeprom_end+0xff7ef9ad>
      9d:	67 4f       	sbci	r22, 0xF7	; 247
      9f:	08 23       	and	r16, r24
      a1:	df c1       	rjmp	.+958    	; 0x461 <__stack+0x2>
      a3:	df ae       	std	Y+63, r13	; 0x3f
      a5:	59 e1       	ldi	r21, 0x19	; 25
      a7:	b1 b7       	in	r27, 0x31	; 49
      a9:	96 e5       	ldi	r25, 0x56	; 86
      ab:	e3 e4       	ldi	r30, 0x43	; 67
      ad:	53 c6       	rjmp	.+3238   	; 0xd55 <__ftoa_engine+0xe3>
      af:	3a e6       	ldi	r19, 0x6A	; 106
      b1:	51 99       	sbic	0x0a, 1	; 10
      b3:	76 96       	adiw	r30, 0x16	; 22
      b5:	e8 e6       	ldi	r30, 0x68	; 104
      b7:	c2 84       	ldd	r12, Z+10	; 0x0a
      b9:	26 eb       	ldi	r18, 0xB6	; 182
      bb:	89 8c       	ldd	r8, Y+25	; 0x19
      bd:	9b 62       	ori	r25, 0x2B	; 43
      bf:	ed 40       	sbci	r30, 0x0D	; 13
      c1:	7c 6f       	ori	r23, 0xFC	; 252
      c3:	fc ef       	ldi	r31, 0xFC	; 252
      c5:	bc 9c       	mul	r11, r12
      c7:	9f 40       	sbci	r25, 0x0F	; 15
      c9:	f2 ba       	out	0x12, r15	; 18
      cb:	a5 6f       	ori	r26, 0xF5	; 245
      cd:	a5 f4       	brhc	.+40     	; 0xf7 <__SREG__+0xb8>
      cf:	90 05       	cpc	r25, r0
      d1:	5a 2a       	or	r5, r26
      d3:	f7 5c       	subi	r31, 0xC7	; 199
      d5:	93 6b       	ori	r25, 0xB3	; 179
      d7:	6c f9       	.word	0xf96c	; ????
      d9:	67 6d       	ori	r22, 0xD7	; 215
      db:	c1 1b       	sub	r28, r17
      dd:	fc e0       	ldi	r31, 0x0C	; 12
      df:	e4 0d       	add	r30, r4
      e1:	47 fe       	sbrs	r4, 7
      e3:	f5 20       	and	r15, r5
      e5:	e6 b5       	in	r30, 0x26	; 38
      e7:	00 d0       	rcall	.+0      	; 0xe9 <__SREG__+0xaa>
      e9:	ed 90       	ld	r14, X+
      eb:	2e 03       	fmul	r18, r22
      ed:	00 94       	com	r0
      ef:	35 77       	andi	r19, 0x75	; 117
      f1:	05 00       	.word	0x0005	; ????
      f3:	80 84       	ldd	r8, Z+8	; 0x08
      f5:	1e 08       	sbc	r1, r14
      f7:	00 00       	nop
      f9:	20 4e       	sbci	r18, 0xE0	; 224
      fb:	0a 00       	.word	0x000a	; ????
      fd:	00 00       	nop
      ff:	c8 0c       	add	r12, r8
     101:	33 33       	cpi	r19, 0x33	; 51
     103:	33 33       	cpi	r19, 0x33	; 51
     105:	0f 98       	cbi	0x01, 7	; 1
     107:	6e 12       	cpse	r6, r30
     109:	83 11       	cpse	r24, r3
     10b:	41 ef       	ldi	r20, 0xF1	; 241
     10d:	8d 21       	and	r24, r13
     10f:	14 89       	ldd	r17, Z+20	; 0x14
     111:	3b e6       	ldi	r19, 0x6B	; 107
     113:	55 16       	cp	r5, r21
     115:	cf fe       	.word	0xfecf	; ????
     117:	e6 db       	rcall	.-2100   	; 0xfffff8e5 <__eeprom_end+0xff7ef8e5>
     119:	18 d1       	rcall	.+560    	; 0x34b <vfprintf+0x1db>
     11b:	84 4b       	sbci	r24, 0xB4	; 180
     11d:	38 1b       	sub	r19, r24
     11f:	f7 7c       	andi	r31, 0xC7	; 199
     121:	1d 90       	ld	r1, X+
     123:	1d a4       	ldd	r1, Y+45	; 0x2d
     125:	bb e4       	ldi	r27, 0x4B	; 75
     127:	24 20       	and	r2, r4
     129:	32 84       	ldd	r3, Z+10	; 0x0a
     12b:	72 5e       	subi	r23, 0xE2	; 226
     12d:	22 81       	ldd	r18, Z+2	; 0x02
     12f:	00 c9       	rjmp	.-3584   	; 0xfffff331 <__eeprom_end+0xff7ef331>
     131:	f1 24       	eor	r15, r1
     133:	ec a1       	ldd	r30, Y+36	; 0x24
     135:	e5 3d       	cpi	r30, 0xD5	; 213
     137:	27 11       	cpse	r18, r7

00000138 <__ctors_end>:
     138:	11 24       	eor	r1, r1
     13a:	1f be       	out	0x3f, r1	; 63
     13c:	cf e5       	ldi	r28, 0x5F	; 95
     13e:	d4 e0       	ldi	r29, 0x04	; 4
     140:	de bf       	out	0x3e, r29	; 62
     142:	cd bf       	out	0x3d, r28	; 61

00000144 <__do_copy_data>:
     144:	10 e0       	ldi	r17, 0x00	; 0
     146:	a0 e6       	ldi	r26, 0x60	; 96
     148:	b0 e0       	ldi	r27, 0x00	; 0
     14a:	e0 ec       	ldi	r30, 0xC0	; 192
     14c:	f0 e1       	ldi	r31, 0x10	; 16
     14e:	02 c0       	rjmp	.+4      	; 0x154 <.do_copy_data_start>

00000150 <.do_copy_data_loop>:
     150:	05 90       	lpm	r0, Z+
     152:	0d 92       	st	X+, r0

00000154 <.do_copy_data_start>:
     154:	aa 3a       	cpi	r26, 0xAA	; 170
     156:	b1 07       	cpc	r27, r17
     158:	d9 f7       	brne	.-10     	; 0x150 <.do_copy_data_loop>

0000015a <__do_clear_bss>:
     15a:	10 e0       	ldi	r17, 0x00	; 0
     15c:	aa ea       	ldi	r26, 0xAA	; 170
     15e:	b0 e0       	ldi	r27, 0x00	; 0
     160:	01 c0       	rjmp	.+2      	; 0x164 <.do_clear_bss_start>

00000162 <.do_clear_bss_loop>:
     162:	1d 92       	st	X+, r1

00000164 <.do_clear_bss_start>:
     164:	ae 3d       	cpi	r26, 0xDE	; 222
     166:	b1 07       	cpc	r27, r17
     168:	e1 f7       	brne	.-8      	; 0x162 <.do_clear_bss_loop>
     16a:	6f d4       	rcall	.+2270   	; 0xa4a <main>
     16c:	a7 c7       	rjmp	.+3918   	; 0x10bc <_exit>

0000016e <__bad_interrupt>:
     16e:	48 cf       	rjmp	.-368    	; 0x0 <__vectors>

00000170 <vfprintf>:
     170:	a1 e1       	ldi	r26, 0x11	; 17
     172:	b0 e0       	ldi	r27, 0x00	; 0
     174:	ed eb       	ldi	r30, 0xBD	; 189
     176:	f0 e0       	ldi	r31, 0x00	; 0
     178:	48 c7       	rjmp	.+3728   	; 0x100a <__prologue_saves__>
     17a:	3c 01       	movw	r6, r24
     17c:	7f 87       	std	Y+15, r23	; 0x0f
     17e:	6e 87       	std	Y+14, r22	; 0x0e
     180:	6a 01       	movw	r12, r20
     182:	fc 01       	movw	r30, r24
     184:	17 82       	std	Z+7, r1	; 0x07
     186:	16 82       	std	Z+6, r1	; 0x06
     188:	83 81       	ldd	r24, Z+3	; 0x03
     18a:	81 fd       	sbrc	r24, 1
     18c:	03 c0       	rjmp	.+6      	; 0x194 <vfprintf+0x24>
     18e:	6f ef       	ldi	r22, 0xFF	; 255
     190:	7f ef       	ldi	r23, 0xFF	; 255
     192:	54 c3       	rjmp	.+1704   	; 0x83c <__stack+0x3dd>
     194:	9e 01       	movw	r18, r28
     196:	2f 5f       	subi	r18, 0xFF	; 255
     198:	3f 4f       	sbci	r19, 0xFF	; 255
     19a:	39 8b       	std	Y+17, r19	; 0x11
     19c:	28 8b       	std	Y+16, r18	; 0x10
     19e:	f3 01       	movw	r30, r6
     1a0:	23 81       	ldd	r18, Z+3	; 0x03
     1a2:	ee 85       	ldd	r30, Y+14	; 0x0e
     1a4:	ff 85       	ldd	r31, Y+15	; 0x0f
     1a6:	23 fd       	sbrc	r18, 3
     1a8:	85 91       	lpm	r24, Z+
     1aa:	23 ff       	sbrs	r18, 3
     1ac:	81 91       	ld	r24, Z+
     1ae:	ff 87       	std	Y+15, r31	; 0x0f
     1b0:	ee 87       	std	Y+14, r30	; 0x0e
     1b2:	88 23       	and	r24, r24
     1b4:	09 f4       	brne	.+2      	; 0x1b8 <vfprintf+0x48>
     1b6:	3f c3       	rjmp	.+1662   	; 0x836 <__stack+0x3d7>
     1b8:	85 32       	cpi	r24, 0x25	; 37
     1ba:	51 f4       	brne	.+20     	; 0x1d0 <vfprintf+0x60>
     1bc:	ee 85       	ldd	r30, Y+14	; 0x0e
     1be:	ff 85       	ldd	r31, Y+15	; 0x0f
     1c0:	23 fd       	sbrc	r18, 3
     1c2:	85 91       	lpm	r24, Z+
     1c4:	23 ff       	sbrs	r18, 3
     1c6:	81 91       	ld	r24, Z+
     1c8:	ff 87       	std	Y+15, r31	; 0x0f
     1ca:	ee 87       	std	Y+14, r30	; 0x0e
     1cc:	85 32       	cpi	r24, 0x25	; 37
     1ce:	21 f4       	brne	.+8      	; 0x1d8 <vfprintf+0x68>
     1d0:	90 e0       	ldi	r25, 0x00	; 0
     1d2:	b3 01       	movw	r22, r6
     1d4:	6e d6       	rcall	.+3292   	; 0xeb2 <fputc>
     1d6:	e3 cf       	rjmp	.-58     	; 0x19e <vfprintf+0x2e>
     1d8:	98 2f       	mov	r25, r24
     1da:	10 e0       	ldi	r17, 0x00	; 0
     1dc:	88 24       	eor	r8, r8
     1de:	99 24       	eor	r9, r9
     1e0:	10 32       	cpi	r17, 0x20	; 32
     1e2:	b0 f4       	brcc	.+44     	; 0x210 <vfprintf+0xa0>
     1e4:	9b 32       	cpi	r25, 0x2B	; 43
     1e6:	69 f0       	breq	.+26     	; 0x202 <vfprintf+0x92>
     1e8:	9c 32       	cpi	r25, 0x2C	; 44
     1ea:	28 f4       	brcc	.+10     	; 0x1f6 <vfprintf+0x86>
     1ec:	90 32       	cpi	r25, 0x20	; 32
     1ee:	51 f0       	breq	.+20     	; 0x204 <vfprintf+0x94>
     1f0:	93 32       	cpi	r25, 0x23	; 35
     1f2:	71 f4       	brne	.+28     	; 0x210 <vfprintf+0xa0>
     1f4:	0b c0       	rjmp	.+22     	; 0x20c <vfprintf+0x9c>
     1f6:	9d 32       	cpi	r25, 0x2D	; 45
     1f8:	39 f0       	breq	.+14     	; 0x208 <vfprintf+0x98>
     1fa:	90 33       	cpi	r25, 0x30	; 48
     1fc:	49 f4       	brne	.+18     	; 0x210 <vfprintf+0xa0>
     1fe:	11 60       	ori	r17, 0x01	; 1
     200:	28 c0       	rjmp	.+80     	; 0x252 <vfprintf+0xe2>
     202:	12 60       	ori	r17, 0x02	; 2
     204:	14 60       	ori	r17, 0x04	; 4
     206:	25 c0       	rjmp	.+74     	; 0x252 <vfprintf+0xe2>
     208:	18 60       	ori	r17, 0x08	; 8
     20a:	23 c0       	rjmp	.+70     	; 0x252 <vfprintf+0xe2>
     20c:	10 61       	ori	r17, 0x10	; 16
     20e:	21 c0       	rjmp	.+66     	; 0x252 <vfprintf+0xe2>
     210:	17 fd       	sbrc	r17, 7
     212:	2a c0       	rjmp	.+84     	; 0x268 <vfprintf+0xf8>
     214:	89 2f       	mov	r24, r25
     216:	80 53       	subi	r24, 0x30	; 48
     218:	8a 30       	cpi	r24, 0x0A	; 10
     21a:	78 f4       	brcc	.+30     	; 0x23a <vfprintf+0xca>
     21c:	16 ff       	sbrs	r17, 6
     21e:	06 c0       	rjmp	.+12     	; 0x22c <vfprintf+0xbc>
     220:	fa e0       	ldi	r31, 0x0A	; 10
     222:	9f 9e       	mul	r9, r31
     224:	90 2c       	mov	r9, r0
     226:	11 24       	eor	r1, r1
     228:	98 0e       	add	r9, r24
     22a:	13 c0       	rjmp	.+38     	; 0x252 <vfprintf+0xe2>
     22c:	3a e0       	ldi	r19, 0x0A	; 10
     22e:	83 9e       	mul	r8, r19
     230:	80 2c       	mov	r8, r0
     232:	11 24       	eor	r1, r1
     234:	88 0e       	add	r8, r24
     236:	10 62       	ori	r17, 0x20	; 32
     238:	0c c0       	rjmp	.+24     	; 0x252 <vfprintf+0xe2>
     23a:	9e 32       	cpi	r25, 0x2E	; 46
     23c:	21 f4       	brne	.+8      	; 0x246 <vfprintf+0xd6>
     23e:	16 fd       	sbrc	r17, 6
     240:	fa c2       	rjmp	.+1524   	; 0x836 <__stack+0x3d7>
     242:	10 64       	ori	r17, 0x40	; 64
     244:	06 c0       	rjmp	.+12     	; 0x252 <vfprintf+0xe2>
     246:	9c 36       	cpi	r25, 0x6C	; 108
     248:	11 f4       	brne	.+4      	; 0x24e <vfprintf+0xde>
     24a:	10 68       	ori	r17, 0x80	; 128
     24c:	02 c0       	rjmp	.+4      	; 0x252 <vfprintf+0xe2>
     24e:	98 36       	cpi	r25, 0x68	; 104
     250:	59 f4       	brne	.+22     	; 0x268 <vfprintf+0xf8>
     252:	ee 85       	ldd	r30, Y+14	; 0x0e
     254:	ff 85       	ldd	r31, Y+15	; 0x0f
     256:	23 fd       	sbrc	r18, 3
     258:	95 91       	lpm	r25, Z+
     25a:	23 ff       	sbrs	r18, 3
     25c:	91 91       	ld	r25, Z+
     25e:	ff 87       	std	Y+15, r31	; 0x0f
     260:	ee 87       	std	Y+14, r30	; 0x0e
     262:	99 23       	and	r25, r25
     264:	09 f0       	breq	.+2      	; 0x268 <vfprintf+0xf8>
     266:	bc cf       	rjmp	.-136    	; 0x1e0 <vfprintf+0x70>
     268:	89 2f       	mov	r24, r25
     26a:	85 54       	subi	r24, 0x45	; 69
     26c:	83 30       	cpi	r24, 0x03	; 3
     26e:	20 f4       	brcc	.+8      	; 0x278 <vfprintf+0x108>
     270:	81 2f       	mov	r24, r17
     272:	80 61       	ori	r24, 0x10	; 16
     274:	90 5e       	subi	r25, 0xE0	; 224
     276:	07 c0       	rjmp	.+14     	; 0x286 <vfprintf+0x116>
     278:	89 2f       	mov	r24, r25
     27a:	85 56       	subi	r24, 0x65	; 101
     27c:	83 30       	cpi	r24, 0x03	; 3
     27e:	08 f0       	brcs	.+2      	; 0x282 <vfprintf+0x112>
     280:	91 c1       	rjmp	.+802    	; 0x5a4 <__stack+0x145>
     282:	81 2f       	mov	r24, r17
     284:	8f 7e       	andi	r24, 0xEF	; 239
     286:	86 fd       	sbrc	r24, 6
     288:	02 c0       	rjmp	.+4      	; 0x28e <vfprintf+0x11e>
     28a:	76 e0       	ldi	r23, 0x06	; 6
     28c:	97 2e       	mov	r9, r23
     28e:	6f e3       	ldi	r22, 0x3F	; 63
     290:	f6 2e       	mov	r15, r22
     292:	f8 22       	and	r15, r24
     294:	95 36       	cpi	r25, 0x65	; 101
     296:	19 f4       	brne	.+6      	; 0x29e <vfprintf+0x12e>
     298:	f0 e4       	ldi	r31, 0x40	; 64
     29a:	ff 2a       	or	r15, r31
     29c:	07 c0       	rjmp	.+14     	; 0x2ac <vfprintf+0x13c>
     29e:	96 36       	cpi	r25, 0x66	; 102
     2a0:	19 f4       	brne	.+6      	; 0x2a8 <vfprintf+0x138>
     2a2:	20 e8       	ldi	r18, 0x80	; 128
     2a4:	f2 2a       	or	r15, r18
     2a6:	02 c0       	rjmp	.+4      	; 0x2ac <vfprintf+0x13c>
     2a8:	91 10       	cpse	r9, r1
     2aa:	9a 94       	dec	r9
     2ac:	f7 fe       	sbrs	r15, 7
     2ae:	0b c0       	rjmp	.+22     	; 0x2c6 <vfprintf+0x156>
     2b0:	3b e3       	ldi	r19, 0x3B	; 59
     2b2:	39 15       	cp	r19, r9
     2b4:	20 f4       	brcc	.+8      	; 0x2be <vfprintf+0x14e>
     2b6:	27 e0       	ldi	r18, 0x07	; 7
     2b8:	5c e3       	ldi	r21, 0x3C	; 60
     2ba:	b5 2e       	mov	r11, r21
     2bc:	0e c0       	rjmp	.+28     	; 0x2da <vfprintf+0x16a>
     2be:	b9 2c       	mov	r11, r9
     2c0:	b3 94       	inc	r11
     2c2:	27 e0       	ldi	r18, 0x07	; 7
     2c4:	0a c0       	rjmp	.+20     	; 0x2da <vfprintf+0x16a>
     2c6:	47 e0       	ldi	r20, 0x07	; 7
     2c8:	49 15       	cp	r20, r9
     2ca:	28 f4       	brcc	.+10     	; 0x2d6 <vfprintf+0x166>
     2cc:	27 e0       	ldi	r18, 0x07	; 7
     2ce:	bb 24       	eor	r11, r11
     2d0:	47 e0       	ldi	r20, 0x07	; 7
     2d2:	94 2e       	mov	r9, r20
     2d4:	02 c0       	rjmp	.+4      	; 0x2da <vfprintf+0x16a>
     2d6:	29 2d       	mov	r18, r9
     2d8:	bb 24       	eor	r11, r11
     2da:	c6 01       	movw	r24, r12
     2dc:	04 96       	adiw	r24, 0x04	; 4
     2de:	9d 87       	std	Y+13, r25	; 0x0d
     2e0:	8c 87       	std	Y+12, r24	; 0x0c
     2e2:	f6 01       	movw	r30, r12
     2e4:	60 81       	ld	r22, Z
     2e6:	71 81       	ldd	r23, Z+1	; 0x01
     2e8:	82 81       	ldd	r24, Z+2	; 0x02
     2ea:	93 81       	ldd	r25, Z+3	; 0x03
     2ec:	ae 01       	movw	r20, r28
     2ee:	4f 5f       	subi	r20, 0xFF	; 255
     2f0:	5f 4f       	sbci	r21, 0xFF	; 255
     2f2:	0b 2d       	mov	r16, r11
     2f4:	be d4       	rcall	.+2428   	; 0xc72 <__ftoa_engine>
     2f6:	6c 01       	movw	r12, r24
     2f8:	09 81       	ldd	r16, Y+1	; 0x01
     2fa:	20 2e       	mov	r2, r16
     2fc:	33 24       	eor	r3, r3
     2fe:	00 ff       	sbrs	r16, 0
     300:	04 c0       	rjmp	.+8      	; 0x30a <vfprintf+0x19a>
     302:	03 fd       	sbrc	r16, 3
     304:	02 c0       	rjmp	.+4      	; 0x30a <vfprintf+0x19a>
     306:	1d e2       	ldi	r17, 0x2D	; 45
     308:	09 c0       	rjmp	.+18     	; 0x31c <vfprintf+0x1ac>
     30a:	f1 fe       	sbrs	r15, 1
     30c:	02 c0       	rjmp	.+4      	; 0x312 <vfprintf+0x1a2>
     30e:	1b e2       	ldi	r17, 0x2B	; 43
     310:	05 c0       	rjmp	.+10     	; 0x31c <vfprintf+0x1ac>
     312:	f2 fc       	sbrc	r15, 2
     314:	02 c0       	rjmp	.+4      	; 0x31a <vfprintf+0x1aa>
     316:	10 e0       	ldi	r17, 0x00	; 0
     318:	01 c0       	rjmp	.+2      	; 0x31c <vfprintf+0x1ac>
     31a:	10 e2       	ldi	r17, 0x20	; 32
     31c:	c1 01       	movw	r24, r2
     31e:	8c 70       	andi	r24, 0x0C	; 12
     320:	90 70       	andi	r25, 0x00	; 0
     322:	89 2b       	or	r24, r25
     324:	a1 f1       	breq	.+104    	; 0x38e <vfprintf+0x21e>
     326:	11 23       	and	r17, r17
     328:	11 f4       	brne	.+4      	; 0x32e <vfprintf+0x1be>
     32a:	83 e0       	ldi	r24, 0x03	; 3
     32c:	01 c0       	rjmp	.+2      	; 0x330 <vfprintf+0x1c0>
     32e:	84 e0       	ldi	r24, 0x04	; 4
     330:	88 15       	cp	r24, r8
     332:	10 f0       	brcs	.+4      	; 0x338 <vfprintf+0x1c8>
     334:	88 24       	eor	r8, r8
     336:	09 c0       	rjmp	.+18     	; 0x34a <vfprintf+0x1da>
     338:	88 1a       	sub	r8, r24
     33a:	f3 fc       	sbrc	r15, 3
     33c:	06 c0       	rjmp	.+12     	; 0x34a <vfprintf+0x1da>
     33e:	80 e2       	ldi	r24, 0x20	; 32
     340:	90 e0       	ldi	r25, 0x00	; 0
     342:	b3 01       	movw	r22, r6
     344:	b6 d5       	rcall	.+2924   	; 0xeb2 <fputc>
     346:	8a 94       	dec	r8
     348:	d1 f7       	brne	.-12     	; 0x33e <vfprintf+0x1ce>
     34a:	11 23       	and	r17, r17
     34c:	21 f0       	breq	.+8      	; 0x356 <vfprintf+0x1e6>
     34e:	81 2f       	mov	r24, r17
     350:	90 e0       	ldi	r25, 0x00	; 0
     352:	b3 01       	movw	r22, r6
     354:	ae d5       	rcall	.+2908   	; 0xeb2 <fputc>
     356:	23 fe       	sbrs	r2, 3
     358:	03 c0       	rjmp	.+6      	; 0x360 <vfprintf+0x1f0>
     35a:	06 e2       	ldi	r16, 0x26	; 38
     35c:	10 e0       	ldi	r17, 0x00	; 0
     35e:	0d c0       	rjmp	.+26     	; 0x37a <vfprintf+0x20a>
     360:	0a e2       	ldi	r16, 0x2A	; 42
     362:	10 e0       	ldi	r17, 0x00	; 0
     364:	0a c0       	rjmp	.+20     	; 0x37a <vfprintf+0x20a>
     366:	e1 14       	cp	r14, r1
     368:	f1 04       	cpc	r15, r1
     36a:	09 f0       	breq	.+2      	; 0x36e <vfprintf+0x1fe>
     36c:	80 52       	subi	r24, 0x20	; 32
     36e:	90 e0       	ldi	r25, 0x00	; 0
     370:	b3 01       	movw	r22, r6
     372:	9f d5       	rcall	.+2878   	; 0xeb2 <fputc>
     374:	0f 5f       	subi	r16, 0xFF	; 255
     376:	1f 4f       	sbci	r17, 0xFF	; 255
     378:	05 c0       	rjmp	.+10     	; 0x384 <vfprintf+0x214>
     37a:	ef 2c       	mov	r14, r15
     37c:	ff 24       	eor	r15, r15
     37e:	f0 e1       	ldi	r31, 0x10	; 16
     380:	ef 22       	and	r14, r31
     382:	ff 24       	eor	r15, r15
     384:	f8 01       	movw	r30, r16
     386:	84 91       	lpm	r24, Z+
     388:	88 23       	and	r24, r24
     38a:	69 f7       	brne	.-38     	; 0x366 <vfprintf+0x1f6>
     38c:	08 c1       	rjmp	.+528    	; 0x59e <__stack+0x13f>
     38e:	f7 fe       	sbrs	r15, 7
     390:	12 c0       	rjmp	.+36     	; 0x3b6 <vfprintf+0x246>
     392:	bc 0c       	add	r11, r12
     394:	24 fe       	sbrs	r2, 4
     396:	04 c0       	rjmp	.+8      	; 0x3a0 <vfprintf+0x230>
     398:	8a 81       	ldd	r24, Y+2	; 0x02
     39a:	81 33       	cpi	r24, 0x31	; 49
     39c:	09 f4       	brne	.+2      	; 0x3a0 <vfprintf+0x230>
     39e:	ba 94       	dec	r11
     3a0:	1b 14       	cp	r1, r11
     3a2:	1c f0       	brlt	.+6      	; 0x3aa <vfprintf+0x23a>
     3a4:	bb 24       	eor	r11, r11
     3a6:	b3 94       	inc	r11
     3a8:	2d c0       	rjmp	.+90     	; 0x404 <vfprintf+0x294>
     3aa:	f8 e0       	ldi	r31, 0x08	; 8
     3ac:	fb 15       	cp	r31, r11
     3ae:	50 f5       	brcc	.+84     	; 0x404 <vfprintf+0x294>
     3b0:	38 e0       	ldi	r19, 0x08	; 8
     3b2:	b3 2e       	mov	r11, r19
     3b4:	27 c0       	rjmp	.+78     	; 0x404 <vfprintf+0x294>
     3b6:	f6 fc       	sbrc	r15, 6
     3b8:	25 c0       	rjmp	.+74     	; 0x404 <vfprintf+0x294>
     3ba:	89 2d       	mov	r24, r9
     3bc:	90 e0       	ldi	r25, 0x00	; 0
     3be:	8c 15       	cp	r24, r12
     3c0:	9d 05       	cpc	r25, r13
     3c2:	4c f0       	brlt	.+18     	; 0x3d6 <vfprintf+0x266>
     3c4:	2c ef       	ldi	r18, 0xFC	; 252
     3c6:	c2 16       	cp	r12, r18
     3c8:	2f ef       	ldi	r18, 0xFF	; 255
     3ca:	d2 06       	cpc	r13, r18
     3cc:	24 f0       	brlt	.+8      	; 0x3d6 <vfprintf+0x266>
     3ce:	30 e8       	ldi	r19, 0x80	; 128
     3d0:	f3 2a       	or	r15, r19
     3d2:	01 c0       	rjmp	.+2      	; 0x3d6 <vfprintf+0x266>
     3d4:	9a 94       	dec	r9
     3d6:	99 20       	and	r9, r9
     3d8:	49 f0       	breq	.+18     	; 0x3ec <vfprintf+0x27c>
     3da:	e2 e0       	ldi	r30, 0x02	; 2
     3dc:	f0 e0       	ldi	r31, 0x00	; 0
     3de:	ec 0f       	add	r30, r28
     3e0:	fd 1f       	adc	r31, r29
     3e2:	e9 0d       	add	r30, r9
     3e4:	f1 1d       	adc	r31, r1
     3e6:	80 81       	ld	r24, Z
     3e8:	80 33       	cpi	r24, 0x30	; 48
     3ea:	a1 f3       	breq	.-24     	; 0x3d4 <vfprintf+0x264>
     3ec:	f7 fe       	sbrs	r15, 7
     3ee:	0a c0       	rjmp	.+20     	; 0x404 <vfprintf+0x294>
     3f0:	b9 2c       	mov	r11, r9
     3f2:	b3 94       	inc	r11
     3f4:	89 2d       	mov	r24, r9
     3f6:	90 e0       	ldi	r25, 0x00	; 0
     3f8:	c8 16       	cp	r12, r24
     3fa:	d9 06       	cpc	r13, r25
     3fc:	14 f0       	brlt	.+4      	; 0x402 <vfprintf+0x292>
     3fe:	99 24       	eor	r9, r9
     400:	01 c0       	rjmp	.+2      	; 0x404 <vfprintf+0x294>
     402:	9c 18       	sub	r9, r12
     404:	f7 fc       	sbrc	r15, 7
     406:	03 c0       	rjmp	.+6      	; 0x40e <vfprintf+0x29e>
     408:	25 e0       	ldi	r18, 0x05	; 5
     40a:	30 e0       	ldi	r19, 0x00	; 0
     40c:	09 c0       	rjmp	.+18     	; 0x420 <vfprintf+0x2b0>
     40e:	1c 14       	cp	r1, r12
     410:	1d 04       	cpc	r1, r13
     412:	1c f0       	brlt	.+6      	; 0x41a <vfprintf+0x2aa>
     414:	21 e0       	ldi	r18, 0x01	; 1
     416:	30 e0       	ldi	r19, 0x00	; 0
     418:	03 c0       	rjmp	.+6      	; 0x420 <vfprintf+0x2b0>
     41a:	96 01       	movw	r18, r12
     41c:	2f 5f       	subi	r18, 0xFF	; 255
     41e:	3f 4f       	sbci	r19, 0xFF	; 255
     420:	11 23       	and	r17, r17
     422:	11 f0       	breq	.+4      	; 0x428 <vfprintf+0x2b8>
     424:	2f 5f       	subi	r18, 0xFF	; 255
     426:	3f 4f       	sbci	r19, 0xFF	; 255
     428:	99 20       	and	r9, r9
     42a:	29 f0       	breq	.+10     	; 0x436 <vfprintf+0x2c6>
     42c:	89 2d       	mov	r24, r9
     42e:	90 e0       	ldi	r25, 0x00	; 0
     430:	01 96       	adiw	r24, 0x01	; 1
     432:	28 0f       	add	r18, r24
     434:	39 1f       	adc	r19, r25
     436:	88 2d       	mov	r24, r8
     438:	90 e0       	ldi	r25, 0x00	; 0
     43a:	28 17       	cp	r18, r24
     43c:	39 07       	cpc	r19, r25
     43e:	14 f0       	brlt	.+4      	; 0x444 <vfprintf+0x2d4>
     440:	88 24       	eor	r8, r8
     442:	01 c0       	rjmp	.+2      	; 0x446 <vfprintf+0x2d6>
     444:	82 1a       	sub	r8, r18
     446:	4f 2c       	mov	r4, r15
     448:	55 24       	eor	r5, r5
     44a:	c2 01       	movw	r24, r4
     44c:	89 70       	andi	r24, 0x09	; 9
     44e:	90 70       	andi	r25, 0x00	; 0
     450:	89 2b       	or	r24, r25
     452:	31 f0       	breq	.+12     	; 0x460 <__stack+0x1>
     454:	07 c0       	rjmp	.+14     	; 0x464 <__stack+0x5>
     456:	80 e2       	ldi	r24, 0x20	; 32
     458:	90 e0       	ldi	r25, 0x00	; 0
     45a:	b3 01       	movw	r22, r6
     45c:	2a d5       	rcall	.+2644   	; 0xeb2 <fputc>
     45e:	8a 94       	dec	r8
     460:	88 20       	and	r8, r8
     462:	c9 f7       	brne	.-14     	; 0x456 <vfprintf+0x2e6>
     464:	11 23       	and	r17, r17
     466:	21 f0       	breq	.+8      	; 0x470 <__stack+0x11>
     468:	81 2f       	mov	r24, r17
     46a:	90 e0       	ldi	r25, 0x00	; 0
     46c:	b3 01       	movw	r22, r6
     46e:	21 d5       	rcall	.+2626   	; 0xeb2 <fputc>
     470:	43 fe       	sbrs	r4, 3
     472:	06 c0       	rjmp	.+12     	; 0x480 <__stack+0x21>
     474:	07 c0       	rjmp	.+14     	; 0x484 <__stack+0x25>
     476:	80 e3       	ldi	r24, 0x30	; 48
     478:	90 e0       	ldi	r25, 0x00	; 0
     47a:	b3 01       	movw	r22, r6
     47c:	1a d5       	rcall	.+2612   	; 0xeb2 <fputc>
     47e:	8a 94       	dec	r8
     480:	88 20       	and	r8, r8
     482:	c9 f7       	brne	.-14     	; 0x476 <__stack+0x17>
     484:	f7 fe       	sbrs	r15, 7
     486:	44 c0       	rjmp	.+136    	; 0x510 <__stack+0xb1>
     488:	86 01       	movw	r16, r12
     48a:	d7 fe       	sbrs	r13, 7
     48c:	02 c0       	rjmp	.+4      	; 0x492 <__stack+0x33>
     48e:	00 e0       	ldi	r16, 0x00	; 0
     490:	10 e0       	ldi	r17, 0x00	; 0
     492:	76 01       	movw	r14, r12
     494:	08 94       	sec
     496:	e1 1c       	adc	r14, r1
     498:	f1 1c       	adc	r15, r1
     49a:	e0 1a       	sub	r14, r16
     49c:	f1 0a       	sbc	r15, r17
     49e:	41 e0       	ldi	r20, 0x01	; 1
     4a0:	50 e0       	ldi	r21, 0x00	; 0
     4a2:	4c 0f       	add	r20, r28
     4a4:	5d 1f       	adc	r21, r29
     4a6:	e4 0e       	add	r14, r20
     4a8:	f5 1e       	adc	r15, r21
     4aa:	26 01       	movw	r4, r12
     4ac:	4b 18       	sub	r4, r11
     4ae:	51 08       	sbc	r5, r1
     4b0:	89 2d       	mov	r24, r9
     4b2:	90 e0       	ldi	r25, 0x00	; 0
     4b4:	aa 24       	eor	r10, r10
     4b6:	bb 24       	eor	r11, r11
     4b8:	a8 1a       	sub	r10, r24
     4ba:	b9 0a       	sbc	r11, r25
     4bc:	5f ef       	ldi	r21, 0xFF	; 255
     4be:	0f 3f       	cpi	r16, 0xFF	; 255
     4c0:	15 07       	cpc	r17, r21
     4c2:	21 f4       	brne	.+8      	; 0x4cc <__stack+0x6d>
     4c4:	8e e2       	ldi	r24, 0x2E	; 46
     4c6:	90 e0       	ldi	r25, 0x00	; 0
     4c8:	b3 01       	movw	r22, r6
     4ca:	f3 d4       	rcall	.+2534   	; 0xeb2 <fputc>
     4cc:	c0 16       	cp	r12, r16
     4ce:	d1 06       	cpc	r13, r17
     4d0:	34 f0       	brlt	.+12     	; 0x4de <__stack+0x7f>
     4d2:	40 16       	cp	r4, r16
     4d4:	51 06       	cpc	r5, r17
     4d6:	1c f4       	brge	.+6      	; 0x4de <__stack+0x7f>
     4d8:	f7 01       	movw	r30, r14
     4da:	80 81       	ld	r24, Z
     4dc:	01 c0       	rjmp	.+2      	; 0x4e0 <__stack+0x81>
     4de:	80 e3       	ldi	r24, 0x30	; 48
     4e0:	01 50       	subi	r16, 0x01	; 1
     4e2:	10 40       	sbci	r17, 0x00	; 0
     4e4:	08 94       	sec
     4e6:	e1 1c       	adc	r14, r1
     4e8:	f1 1c       	adc	r15, r1
     4ea:	0a 15       	cp	r16, r10
     4ec:	1b 05       	cpc	r17, r11
     4ee:	24 f0       	brlt	.+8      	; 0x4f8 <__stack+0x99>
     4f0:	90 e0       	ldi	r25, 0x00	; 0
     4f2:	b3 01       	movw	r22, r6
     4f4:	de d4       	rcall	.+2492   	; 0xeb2 <fputc>
     4f6:	e2 cf       	rjmp	.-60     	; 0x4bc <__stack+0x5d>
     4f8:	0c 15       	cp	r16, r12
     4fa:	1d 05       	cpc	r17, r13
     4fc:	39 f4       	brne	.+14     	; 0x50c <__stack+0xad>
     4fe:	9a 81       	ldd	r25, Y+2	; 0x02
     500:	96 33       	cpi	r25, 0x36	; 54
     502:	18 f4       	brcc	.+6      	; 0x50a <__stack+0xab>
     504:	95 33       	cpi	r25, 0x35	; 53
     506:	11 f4       	brne	.+4      	; 0x50c <__stack+0xad>
     508:	24 fe       	sbrs	r2, 4
     50a:	81 e3       	ldi	r24, 0x31	; 49
     50c:	90 e0       	ldi	r25, 0x00	; 0
     50e:	45 c0       	rjmp	.+138    	; 0x59a <__stack+0x13b>
     510:	8a 81       	ldd	r24, Y+2	; 0x02
     512:	81 33       	cpi	r24, 0x31	; 49
     514:	09 f0       	breq	.+2      	; 0x518 <__stack+0xb9>
     516:	0f 7e       	andi	r16, 0xEF	; 239
     518:	90 e0       	ldi	r25, 0x00	; 0
     51a:	b3 01       	movw	r22, r6
     51c:	ca d4       	rcall	.+2452   	; 0xeb2 <fputc>
     51e:	99 20       	and	r9, r9
     520:	91 f0       	breq	.+36     	; 0x546 <__stack+0xe7>
     522:	8e e2       	ldi	r24, 0x2E	; 46
     524:	90 e0       	ldi	r25, 0x00	; 0
     526:	b3 01       	movw	r22, r6
     528:	c4 d4       	rcall	.+2440   	; 0xeb2 <fputc>
     52a:	12 e0       	ldi	r17, 0x02	; 2
     52c:	e1 e0       	ldi	r30, 0x01	; 1
     52e:	f0 e0       	ldi	r31, 0x00	; 0
     530:	ec 0f       	add	r30, r28
     532:	fd 1f       	adc	r31, r29
     534:	e1 0f       	add	r30, r17
     536:	f1 1d       	adc	r31, r1
     538:	1f 5f       	subi	r17, 0xFF	; 255
     53a:	80 81       	ld	r24, Z
     53c:	90 e0       	ldi	r25, 0x00	; 0
     53e:	b3 01       	movw	r22, r6
     540:	b8 d4       	rcall	.+2416   	; 0xeb2 <fputc>
     542:	9a 94       	dec	r9
     544:	99 f7       	brne	.-26     	; 0x52c <__stack+0xcd>
     546:	44 fc       	sbrc	r4, 4
     548:	03 c0       	rjmp	.+6      	; 0x550 <__stack+0xf1>
     54a:	85 e6       	ldi	r24, 0x65	; 101
     54c:	90 e0       	ldi	r25, 0x00	; 0
     54e:	02 c0       	rjmp	.+4      	; 0x554 <__stack+0xf5>
     550:	85 e4       	ldi	r24, 0x45	; 69
     552:	90 e0       	ldi	r25, 0x00	; 0
     554:	b3 01       	movw	r22, r6
     556:	ad d4       	rcall	.+2394   	; 0xeb2 <fputc>
     558:	d7 fc       	sbrc	r13, 7
     55a:	05 c0       	rjmp	.+10     	; 0x566 <__stack+0x107>
     55c:	c1 14       	cp	r12, r1
     55e:	d1 04       	cpc	r13, r1
     560:	41 f4       	brne	.+16     	; 0x572 <__stack+0x113>
     562:	04 ff       	sbrs	r16, 4
     564:	06 c0       	rjmp	.+12     	; 0x572 <__stack+0x113>
     566:	d0 94       	com	r13
     568:	c1 94       	neg	r12
     56a:	d1 08       	sbc	r13, r1
     56c:	d3 94       	inc	r13
     56e:	8d e2       	ldi	r24, 0x2D	; 45
     570:	01 c0       	rjmp	.+2      	; 0x574 <__stack+0x115>
     572:	8b e2       	ldi	r24, 0x2B	; 43
     574:	90 e0       	ldi	r25, 0x00	; 0
     576:	b3 01       	movw	r22, r6
     578:	9c d4       	rcall	.+2360   	; 0xeb2 <fputc>
     57a:	80 e3       	ldi	r24, 0x30	; 48
     57c:	05 c0       	rjmp	.+10     	; 0x588 <__stack+0x129>
     57e:	8f 5f       	subi	r24, 0xFF	; 255
     580:	26 ef       	ldi	r18, 0xF6	; 246
     582:	3f ef       	ldi	r19, 0xFF	; 255
     584:	c2 0e       	add	r12, r18
     586:	d3 1e       	adc	r13, r19
     588:	3a e0       	ldi	r19, 0x0A	; 10
     58a:	c3 16       	cp	r12, r19
     58c:	d1 04       	cpc	r13, r1
     58e:	bc f7       	brge	.-18     	; 0x57e <__stack+0x11f>
     590:	90 e0       	ldi	r25, 0x00	; 0
     592:	b3 01       	movw	r22, r6
     594:	8e d4       	rcall	.+2332   	; 0xeb2 <fputc>
     596:	c6 01       	movw	r24, r12
     598:	c0 96       	adiw	r24, 0x30	; 48
     59a:	b3 01       	movw	r22, r6
     59c:	8a d4       	rcall	.+2324   	; 0xeb2 <fputc>
     59e:	cc 84       	ldd	r12, Y+12	; 0x0c
     5a0:	dd 84       	ldd	r13, Y+13	; 0x0d
     5a2:	46 c1       	rjmp	.+652    	; 0x830 <__stack+0x3d1>
     5a4:	93 36       	cpi	r25, 0x63	; 99
     5a6:	31 f0       	breq	.+12     	; 0x5b4 <__stack+0x155>
     5a8:	93 37       	cpi	r25, 0x73	; 115
     5aa:	99 f0       	breq	.+38     	; 0x5d2 <__stack+0x173>
     5ac:	93 35       	cpi	r25, 0x53	; 83
     5ae:	09 f0       	breq	.+2      	; 0x5b2 <__stack+0x153>
     5b0:	55 c0       	rjmp	.+170    	; 0x65c <__stack+0x1fd>
     5b2:	22 c0       	rjmp	.+68     	; 0x5f8 <__stack+0x199>
     5b4:	f6 01       	movw	r30, r12
     5b6:	80 81       	ld	r24, Z
     5b8:	89 83       	std	Y+1, r24	; 0x01
     5ba:	5e 01       	movw	r10, r28
     5bc:	08 94       	sec
     5be:	a1 1c       	adc	r10, r1
     5c0:	b1 1c       	adc	r11, r1
     5c2:	22 e0       	ldi	r18, 0x02	; 2
     5c4:	30 e0       	ldi	r19, 0x00	; 0
     5c6:	c2 0e       	add	r12, r18
     5c8:	d3 1e       	adc	r13, r19
     5ca:	21 e0       	ldi	r18, 0x01	; 1
     5cc:	e2 2e       	mov	r14, r18
     5ce:	f1 2c       	mov	r15, r1
     5d0:	11 c0       	rjmp	.+34     	; 0x5f4 <__stack+0x195>
     5d2:	f6 01       	movw	r30, r12
     5d4:	a0 80       	ld	r10, Z
     5d6:	b1 80       	ldd	r11, Z+1	; 0x01
     5d8:	16 fd       	sbrc	r17, 6
     5da:	03 c0       	rjmp	.+6      	; 0x5e2 <__stack+0x183>
     5dc:	6f ef       	ldi	r22, 0xFF	; 255
     5de:	7f ef       	ldi	r23, 0xFF	; 255
     5e0:	02 c0       	rjmp	.+4      	; 0x5e6 <__stack+0x187>
     5e2:	69 2d       	mov	r22, r9
     5e4:	70 e0       	ldi	r23, 0x00	; 0
     5e6:	22 e0       	ldi	r18, 0x02	; 2
     5e8:	30 e0       	ldi	r19, 0x00	; 0
     5ea:	c2 0e       	add	r12, r18
     5ec:	d3 1e       	adc	r13, r19
     5ee:	c5 01       	movw	r24, r10
     5f0:	23 d4       	rcall	.+2118   	; 0xe38 <strnlen>
     5f2:	7c 01       	movw	r14, r24
     5f4:	1f 77       	andi	r17, 0x7F	; 127
     5f6:	12 c0       	rjmp	.+36     	; 0x61c <__stack+0x1bd>
     5f8:	f6 01       	movw	r30, r12
     5fa:	a0 80       	ld	r10, Z
     5fc:	b1 80       	ldd	r11, Z+1	; 0x01
     5fe:	16 fd       	sbrc	r17, 6
     600:	03 c0       	rjmp	.+6      	; 0x608 <__stack+0x1a9>
     602:	6f ef       	ldi	r22, 0xFF	; 255
     604:	7f ef       	ldi	r23, 0xFF	; 255
     606:	02 c0       	rjmp	.+4      	; 0x60c <__stack+0x1ad>
     608:	69 2d       	mov	r22, r9
     60a:	70 e0       	ldi	r23, 0x00	; 0
     60c:	22 e0       	ldi	r18, 0x02	; 2
     60e:	30 e0       	ldi	r19, 0x00	; 0
     610:	c2 0e       	add	r12, r18
     612:	d3 1e       	adc	r13, r19
     614:	c5 01       	movw	r24, r10
     616:	05 d4       	rcall	.+2058   	; 0xe22 <strnlen_P>
     618:	7c 01       	movw	r14, r24
     61a:	10 68       	ori	r17, 0x80	; 128
     61c:	13 ff       	sbrs	r17, 3
     61e:	06 c0       	rjmp	.+12     	; 0x62c <__stack+0x1cd>
     620:	19 c0       	rjmp	.+50     	; 0x654 <__stack+0x1f5>
     622:	80 e2       	ldi	r24, 0x20	; 32
     624:	90 e0       	ldi	r25, 0x00	; 0
     626:	b3 01       	movw	r22, r6
     628:	44 d4       	rcall	.+2184   	; 0xeb2 <fputc>
     62a:	8a 94       	dec	r8
     62c:	88 2d       	mov	r24, r8
     62e:	90 e0       	ldi	r25, 0x00	; 0
     630:	e8 16       	cp	r14, r24
     632:	f9 06       	cpc	r15, r25
     634:	b0 f3       	brcs	.-20     	; 0x622 <__stack+0x1c3>
     636:	0e c0       	rjmp	.+28     	; 0x654 <__stack+0x1f5>
     638:	f5 01       	movw	r30, r10
     63a:	17 fd       	sbrc	r17, 7
     63c:	85 91       	lpm	r24, Z+
     63e:	17 ff       	sbrs	r17, 7
     640:	81 91       	ld	r24, Z+
     642:	5f 01       	movw	r10, r30
     644:	90 e0       	ldi	r25, 0x00	; 0
     646:	b3 01       	movw	r22, r6
     648:	34 d4       	rcall	.+2152   	; 0xeb2 <fputc>
     64a:	81 10       	cpse	r8, r1
     64c:	8a 94       	dec	r8
     64e:	08 94       	sec
     650:	e1 08       	sbc	r14, r1
     652:	f1 08       	sbc	r15, r1
     654:	e1 14       	cp	r14, r1
     656:	f1 04       	cpc	r15, r1
     658:	79 f7       	brne	.-34     	; 0x638 <__stack+0x1d9>
     65a:	ea c0       	rjmp	.+468    	; 0x830 <__stack+0x3d1>
     65c:	94 36       	cpi	r25, 0x64	; 100
     65e:	11 f0       	breq	.+4      	; 0x664 <__stack+0x205>
     660:	99 36       	cpi	r25, 0x69	; 105
     662:	81 f5       	brne	.+96     	; 0x6c4 <__stack+0x265>
     664:	17 ff       	sbrs	r17, 7
     666:	08 c0       	rjmp	.+16     	; 0x678 <__stack+0x219>
     668:	f6 01       	movw	r30, r12
     66a:	20 81       	ld	r18, Z
     66c:	31 81       	ldd	r19, Z+1	; 0x01
     66e:	42 81       	ldd	r20, Z+2	; 0x02
     670:	53 81       	ldd	r21, Z+3	; 0x03
     672:	84 e0       	ldi	r24, 0x04	; 4
     674:	90 e0       	ldi	r25, 0x00	; 0
     676:	0a c0       	rjmp	.+20     	; 0x68c <__stack+0x22d>
     678:	f6 01       	movw	r30, r12
     67a:	80 81       	ld	r24, Z
     67c:	91 81       	ldd	r25, Z+1	; 0x01
     67e:	9c 01       	movw	r18, r24
     680:	44 27       	eor	r20, r20
     682:	37 fd       	sbrc	r19, 7
     684:	40 95       	com	r20
     686:	54 2f       	mov	r21, r20
     688:	82 e0       	ldi	r24, 0x02	; 2
     68a:	90 e0       	ldi	r25, 0x00	; 0
     68c:	c8 0e       	add	r12, r24
     68e:	d9 1e       	adc	r13, r25
     690:	9f e6       	ldi	r25, 0x6F	; 111
     692:	f9 2e       	mov	r15, r25
     694:	f1 22       	and	r15, r17
     696:	57 ff       	sbrs	r21, 7
     698:	09 c0       	rjmp	.+18     	; 0x6ac <__stack+0x24d>
     69a:	50 95       	com	r21
     69c:	40 95       	com	r20
     69e:	30 95       	com	r19
     6a0:	21 95       	neg	r18
     6a2:	3f 4f       	sbci	r19, 0xFF	; 255
     6a4:	4f 4f       	sbci	r20, 0xFF	; 255
     6a6:	5f 4f       	sbci	r21, 0xFF	; 255
     6a8:	90 e8       	ldi	r25, 0x80	; 128
     6aa:	f9 2a       	or	r15, r25
     6ac:	ca 01       	movw	r24, r20
     6ae:	b9 01       	movw	r22, r18
     6b0:	ae 01       	movw	r20, r28
     6b2:	4f 5f       	subi	r20, 0xFF	; 255
     6b4:	5f 4f       	sbci	r21, 0xFF	; 255
     6b6:	2a e0       	ldi	r18, 0x0A	; 10
     6b8:	30 e0       	ldi	r19, 0x00	; 0
     6ba:	39 d4       	rcall	.+2162   	; 0xf2e <__ultoa_invert>
     6bc:	e8 2e       	mov	r14, r24
     6be:	e8 89       	ldd	r30, Y+16	; 0x10
     6c0:	ee 1a       	sub	r14, r30
     6c2:	40 c0       	rjmp	.+128    	; 0x744 <__stack+0x2e5>
     6c4:	95 37       	cpi	r25, 0x75	; 117
     6c6:	21 f4       	brne	.+8      	; 0x6d0 <__stack+0x271>
     6c8:	1f 7e       	andi	r17, 0xEF	; 239
     6ca:	2a e0       	ldi	r18, 0x0A	; 10
     6cc:	30 e0       	ldi	r19, 0x00	; 0
     6ce:	1c c0       	rjmp	.+56     	; 0x708 <__stack+0x2a9>
     6d0:	19 7f       	andi	r17, 0xF9	; 249
     6d2:	9f 36       	cpi	r25, 0x6F	; 111
     6d4:	61 f0       	breq	.+24     	; 0x6ee <__stack+0x28f>
     6d6:	90 37       	cpi	r25, 0x70	; 112
     6d8:	20 f4       	brcc	.+8      	; 0x6e2 <__stack+0x283>
     6da:	98 35       	cpi	r25, 0x58	; 88
     6dc:	09 f0       	breq	.+2      	; 0x6e0 <__stack+0x281>
     6de:	ab c0       	rjmp	.+342    	; 0x836 <__stack+0x3d7>
     6e0:	0f c0       	rjmp	.+30     	; 0x700 <__stack+0x2a1>
     6e2:	90 37       	cpi	r25, 0x70	; 112
     6e4:	39 f0       	breq	.+14     	; 0x6f4 <__stack+0x295>
     6e6:	98 37       	cpi	r25, 0x78	; 120
     6e8:	09 f0       	breq	.+2      	; 0x6ec <__stack+0x28d>
     6ea:	a5 c0       	rjmp	.+330    	; 0x836 <__stack+0x3d7>
     6ec:	04 c0       	rjmp	.+8      	; 0x6f6 <__stack+0x297>
     6ee:	28 e0       	ldi	r18, 0x08	; 8
     6f0:	30 e0       	ldi	r19, 0x00	; 0
     6f2:	0a c0       	rjmp	.+20     	; 0x708 <__stack+0x2a9>
     6f4:	10 61       	ori	r17, 0x10	; 16
     6f6:	14 fd       	sbrc	r17, 4
     6f8:	14 60       	ori	r17, 0x04	; 4
     6fa:	20 e1       	ldi	r18, 0x10	; 16
     6fc:	30 e0       	ldi	r19, 0x00	; 0
     6fe:	04 c0       	rjmp	.+8      	; 0x708 <__stack+0x2a9>
     700:	14 fd       	sbrc	r17, 4
     702:	16 60       	ori	r17, 0x06	; 6
     704:	20 e1       	ldi	r18, 0x10	; 16
     706:	32 e0       	ldi	r19, 0x02	; 2
     708:	17 ff       	sbrs	r17, 7
     70a:	08 c0       	rjmp	.+16     	; 0x71c <__stack+0x2bd>
     70c:	f6 01       	movw	r30, r12
     70e:	60 81       	ld	r22, Z
     710:	71 81       	ldd	r23, Z+1	; 0x01
     712:	82 81       	ldd	r24, Z+2	; 0x02
     714:	93 81       	ldd	r25, Z+3	; 0x03
     716:	44 e0       	ldi	r20, 0x04	; 4
     718:	50 e0       	ldi	r21, 0x00	; 0
     71a:	08 c0       	rjmp	.+16     	; 0x72c <__stack+0x2cd>
     71c:	f6 01       	movw	r30, r12
     71e:	80 81       	ld	r24, Z
     720:	91 81       	ldd	r25, Z+1	; 0x01
     722:	bc 01       	movw	r22, r24
     724:	80 e0       	ldi	r24, 0x00	; 0
     726:	90 e0       	ldi	r25, 0x00	; 0
     728:	42 e0       	ldi	r20, 0x02	; 2
     72a:	50 e0       	ldi	r21, 0x00	; 0
     72c:	c4 0e       	add	r12, r20
     72e:	d5 1e       	adc	r13, r21
     730:	ae 01       	movw	r20, r28
     732:	4f 5f       	subi	r20, 0xFF	; 255
     734:	5f 4f       	sbci	r21, 0xFF	; 255
     736:	fb d3       	rcall	.+2038   	; 0xf2e <__ultoa_invert>
     738:	e8 2e       	mov	r14, r24
     73a:	58 89       	ldd	r21, Y+16	; 0x10
     73c:	e5 1a       	sub	r14, r21
     73e:	8f e7       	ldi	r24, 0x7F	; 127
     740:	f8 2e       	mov	r15, r24
     742:	f1 22       	and	r15, r17
     744:	f6 fe       	sbrs	r15, 6
     746:	0b c0       	rjmp	.+22     	; 0x75e <__stack+0x2ff>
     748:	8e ef       	ldi	r24, 0xFE	; 254
     74a:	f8 22       	and	r15, r24
     74c:	e9 14       	cp	r14, r9
     74e:	38 f4       	brcc	.+14     	; 0x75e <__stack+0x2ff>
     750:	f4 fe       	sbrs	r15, 4
     752:	07 c0       	rjmp	.+14     	; 0x762 <__stack+0x303>
     754:	f2 fc       	sbrc	r15, 2
     756:	05 c0       	rjmp	.+10     	; 0x762 <__stack+0x303>
     758:	9f ee       	ldi	r25, 0xEF	; 239
     75a:	f9 22       	and	r15, r25
     75c:	02 c0       	rjmp	.+4      	; 0x762 <__stack+0x303>
     75e:	1e 2d       	mov	r17, r14
     760:	01 c0       	rjmp	.+2      	; 0x764 <__stack+0x305>
     762:	19 2d       	mov	r17, r9
     764:	f4 fe       	sbrs	r15, 4
     766:	0d c0       	rjmp	.+26     	; 0x782 <__stack+0x323>
     768:	fe 01       	movw	r30, r28
     76a:	ee 0d       	add	r30, r14
     76c:	f1 1d       	adc	r31, r1
     76e:	80 81       	ld	r24, Z
     770:	80 33       	cpi	r24, 0x30	; 48
     772:	19 f4       	brne	.+6      	; 0x77a <__stack+0x31b>
     774:	e9 ee       	ldi	r30, 0xE9	; 233
     776:	fe 22       	and	r15, r30
     778:	08 c0       	rjmp	.+16     	; 0x78a <__stack+0x32b>
     77a:	1f 5f       	subi	r17, 0xFF	; 255
     77c:	f2 fe       	sbrs	r15, 2
     77e:	05 c0       	rjmp	.+10     	; 0x78a <__stack+0x32b>
     780:	03 c0       	rjmp	.+6      	; 0x788 <__stack+0x329>
     782:	8f 2d       	mov	r24, r15
     784:	86 78       	andi	r24, 0x86	; 134
     786:	09 f0       	breq	.+2      	; 0x78a <__stack+0x32b>
     788:	1f 5f       	subi	r17, 0xFF	; 255
     78a:	0f 2d       	mov	r16, r15
     78c:	f3 fc       	sbrc	r15, 3
     78e:	13 c0       	rjmp	.+38     	; 0x7b6 <__stack+0x357>
     790:	f0 fe       	sbrs	r15, 0
     792:	0e c0       	rjmp	.+28     	; 0x7b0 <__stack+0x351>
     794:	18 15       	cp	r17, r8
     796:	10 f0       	brcs	.+4      	; 0x79c <__stack+0x33d>
     798:	9e 2c       	mov	r9, r14
     79a:	0a c0       	rjmp	.+20     	; 0x7b0 <__stack+0x351>
     79c:	9e 2c       	mov	r9, r14
     79e:	98 0c       	add	r9, r8
     7a0:	91 1a       	sub	r9, r17
     7a2:	18 2d       	mov	r17, r8
     7a4:	05 c0       	rjmp	.+10     	; 0x7b0 <__stack+0x351>
     7a6:	80 e2       	ldi	r24, 0x20	; 32
     7a8:	90 e0       	ldi	r25, 0x00	; 0
     7aa:	b3 01       	movw	r22, r6
     7ac:	82 d3       	rcall	.+1796   	; 0xeb2 <fputc>
     7ae:	1f 5f       	subi	r17, 0xFF	; 255
     7b0:	18 15       	cp	r17, r8
     7b2:	c8 f3       	brcs	.-14     	; 0x7a6 <__stack+0x347>
     7b4:	04 c0       	rjmp	.+8      	; 0x7be <__stack+0x35f>
     7b6:	18 15       	cp	r17, r8
     7b8:	10 f4       	brcc	.+4      	; 0x7be <__stack+0x35f>
     7ba:	81 1a       	sub	r8, r17
     7bc:	01 c0       	rjmp	.+2      	; 0x7c0 <__stack+0x361>
     7be:	88 24       	eor	r8, r8
     7c0:	04 ff       	sbrs	r16, 4
     7c2:	0e c0       	rjmp	.+28     	; 0x7e0 <__stack+0x381>
     7c4:	80 e3       	ldi	r24, 0x30	; 48
     7c6:	90 e0       	ldi	r25, 0x00	; 0
     7c8:	b3 01       	movw	r22, r6
     7ca:	73 d3       	rcall	.+1766   	; 0xeb2 <fputc>
     7cc:	02 ff       	sbrs	r16, 2
     7ce:	1b c0       	rjmp	.+54     	; 0x806 <__stack+0x3a7>
     7d0:	01 fd       	sbrc	r16, 1
     7d2:	03 c0       	rjmp	.+6      	; 0x7da <__stack+0x37b>
     7d4:	88 e7       	ldi	r24, 0x78	; 120
     7d6:	90 e0       	ldi	r25, 0x00	; 0
     7d8:	0e c0       	rjmp	.+28     	; 0x7f6 <__stack+0x397>
     7da:	88 e5       	ldi	r24, 0x58	; 88
     7dc:	90 e0       	ldi	r25, 0x00	; 0
     7de:	0b c0       	rjmp	.+22     	; 0x7f6 <__stack+0x397>
     7e0:	80 2f       	mov	r24, r16
     7e2:	86 78       	andi	r24, 0x86	; 134
     7e4:	81 f0       	breq	.+32     	; 0x806 <__stack+0x3a7>
     7e6:	01 ff       	sbrs	r16, 1
     7e8:	02 c0       	rjmp	.+4      	; 0x7ee <__stack+0x38f>
     7ea:	8b e2       	ldi	r24, 0x2B	; 43
     7ec:	01 c0       	rjmp	.+2      	; 0x7f0 <__stack+0x391>
     7ee:	80 e2       	ldi	r24, 0x20	; 32
     7f0:	f7 fc       	sbrc	r15, 7
     7f2:	8d e2       	ldi	r24, 0x2D	; 45
     7f4:	90 e0       	ldi	r25, 0x00	; 0
     7f6:	b3 01       	movw	r22, r6
     7f8:	5c d3       	rcall	.+1720   	; 0xeb2 <fputc>
     7fa:	05 c0       	rjmp	.+10     	; 0x806 <__stack+0x3a7>
     7fc:	80 e3       	ldi	r24, 0x30	; 48
     7fe:	90 e0       	ldi	r25, 0x00	; 0
     800:	b3 01       	movw	r22, r6
     802:	57 d3       	rcall	.+1710   	; 0xeb2 <fputc>
     804:	9a 94       	dec	r9
     806:	e9 14       	cp	r14, r9
     808:	c8 f3       	brcs	.-14     	; 0x7fc <__stack+0x39d>
     80a:	ea 94       	dec	r14
     80c:	e1 e0       	ldi	r30, 0x01	; 1
     80e:	f0 e0       	ldi	r31, 0x00	; 0
     810:	ec 0f       	add	r30, r28
     812:	fd 1f       	adc	r31, r29
     814:	ee 0d       	add	r30, r14
     816:	f1 1d       	adc	r31, r1
     818:	80 81       	ld	r24, Z
     81a:	90 e0       	ldi	r25, 0x00	; 0
     81c:	b3 01       	movw	r22, r6
     81e:	49 d3       	rcall	.+1682   	; 0xeb2 <fputc>
     820:	ee 20       	and	r14, r14
     822:	99 f7       	brne	.-26     	; 0x80a <__stack+0x3ab>
     824:	05 c0       	rjmp	.+10     	; 0x830 <__stack+0x3d1>
     826:	80 e2       	ldi	r24, 0x20	; 32
     828:	90 e0       	ldi	r25, 0x00	; 0
     82a:	b3 01       	movw	r22, r6
     82c:	42 d3       	rcall	.+1668   	; 0xeb2 <fputc>
     82e:	8a 94       	dec	r8
     830:	88 20       	and	r8, r8
     832:	c9 f7       	brne	.-14     	; 0x826 <__stack+0x3c7>
     834:	b4 cc       	rjmp	.-1688   	; 0x19e <vfprintf+0x2e>
     836:	f3 01       	movw	r30, r6
     838:	66 81       	ldd	r22, Z+6	; 0x06
     83a:	77 81       	ldd	r23, Z+7	; 0x07
     83c:	cb 01       	movw	r24, r22
     83e:	61 96       	adiw	r28, 0x11	; 17
     840:	e2 e1       	ldi	r30, 0x12	; 18
     842:	ff c3       	rjmp	.+2046   	; 0x1042 <__epilogue_restores__>

00000844 <LCD4_Send>:
     844:	38 2f       	mov	r19, r24
     846:	e0 e4       	ldi	r30, 0x40	; 64
     848:	fc e9       	ldi	r31, 0x9C	; 156
     84a:	31 97       	sbiw	r30, 0x01	; 1
     84c:	f1 f7       	brne	.-4      	; 0x84a <LCD4_Send+0x6>
     84e:	98 2f       	mov	r25, r24
     850:	92 95       	swap	r25
     852:	9f 70       	andi	r25, 0x0F	; 15
     854:	29 2f       	mov	r18, r25
     856:	20 61       	ori	r18, 0x10	; 16
     858:	66 23       	and	r22, r22
     85a:	11 f0       	breq	.+4      	; 0x860 <LCD4_Send+0x1c>
     85c:	90 63       	ori	r25, 0x30	; 48
     85e:	02 c0       	rjmp	.+4      	; 0x864 <LCD4_Send+0x20>
     860:	92 2f       	mov	r25, r18
     862:	9f 7d       	andi	r25, 0xDF	; 223
     864:	95 bb       	out	0x15, r25	; 21
     866:	95 e3       	ldi	r25, 0x35	; 53
     868:	9a 95       	dec	r25
     86a:	f1 f7       	brne	.-4      	; 0x868 <LCD4_Send+0x24>
     86c:	ac 98       	cbi	0x15, 4	; 21
     86e:	e0 ea       	ldi	r30, 0xA0	; 160
     870:	ff e0       	ldi	r31, 0x0F	; 15
     872:	31 97       	sbiw	r30, 0x01	; 1
     874:	f1 f7       	brne	.-4      	; 0x872 <LCD4_Send+0x2e>
     876:	83 2f       	mov	r24, r19
     878:	80 61       	ori	r24, 0x10	; 16
     87a:	66 23       	and	r22, r22
     87c:	19 f0       	breq	.+6      	; 0x884 <LCD4_Send+0x40>
     87e:	83 2f       	mov	r24, r19
     880:	80 63       	ori	r24, 0x30	; 48
     882:	01 c0       	rjmp	.+2      	; 0x886 <LCD4_Send+0x42>
     884:	8f 7d       	andi	r24, 0xDF	; 223
     886:	85 bb       	out	0x15, r24	; 21
     888:	85 e3       	ldi	r24, 0x35	; 53
     88a:	8a 95       	dec	r24
     88c:	f1 f7       	brne	.-4      	; 0x88a <LCD4_Send+0x46>
     88e:	ac 98       	cbi	0x15, 4	; 21
     890:	08 95       	ret

00000892 <LCD_pgm_text>:
     892:	1f 93       	push	r17
     894:	cf 93       	push	r28
     896:	df 93       	push	r29
     898:	ec 01       	movw	r28, r24
     89a:	10 e0       	ldi	r17, 0x00	; 0
     89c:	03 c0       	rjmp	.+6      	; 0x8a4 <LCD_pgm_text+0x12>
     89e:	1f 5f       	subi	r17, 0xFF	; 255
     8a0:	61 e0       	ldi	r22, 0x01	; 1
     8a2:	d0 df       	rcall	.-96     	; 0x844 <LCD4_Send>
     8a4:	fe 01       	movw	r30, r28
     8a6:	e1 0f       	add	r30, r17
     8a8:	f1 1d       	adc	r31, r1
     8aa:	84 91       	lpm	r24, Z+
     8ac:	88 23       	and	r24, r24
     8ae:	b9 f7       	brne	.-18     	; 0x89e <LCD_pgm_text+0xc>
     8b0:	df 91       	pop	r29
     8b2:	cf 91       	pop	r28
     8b4:	1f 91       	pop	r17
     8b6:	08 95       	ret

000008b8 <LCD_XY>:
     8b8:	66 23       	and	r22, r22
     8ba:	19 f4       	brne	.+6      	; 0x8c2 <LCD_XY+0xa>
     8bc:	80 68       	ori	r24, 0x80	; 128
     8be:	c2 df       	rcall	.-124    	; 0x844 <LCD4_Send>
     8c0:	08 95       	ret
     8c2:	61 30       	cpi	r22, 0x01	; 1
     8c4:	19 f4       	brne	.+6      	; 0x8cc <LCD_XY+0x14>
     8c6:	80 6c       	ori	r24, 0xC0	; 192
     8c8:	60 e0       	ldi	r22, 0x00	; 0
     8ca:	bc df       	rcall	.-136    	; 0x844 <LCD4_Send>
     8cc:	08 95       	ret

000008ce <LCD_New>:
     8ce:	80 e4       	ldi	r24, 0x40	; 64
     8d0:	60 e0       	ldi	r22, 0x00	; 0
     8d2:	b8 df       	rcall	.-144    	; 0x844 <LCD4_Send>
     8d4:	8f ef       	ldi	r24, 0xFF	; 255
     8d6:	61 e0       	ldi	r22, 0x01	; 1
     8d8:	b5 df       	rcall	.-150    	; 0x844 <LCD4_Send>
     8da:	83 e8       	ldi	r24, 0x83	; 131
     8dc:	61 e0       	ldi	r22, 0x01	; 1
     8de:	b2 df       	rcall	.-156    	; 0x844 <LCD4_Send>
     8e0:	87 e8       	ldi	r24, 0x87	; 135
     8e2:	61 e0       	ldi	r22, 0x01	; 1
     8e4:	af df       	rcall	.-162    	; 0x844 <LCD4_Send>
     8e6:	8f e8       	ldi	r24, 0x8F	; 143
     8e8:	61 e0       	ldi	r22, 0x01	; 1
     8ea:	ac df       	rcall	.-168    	; 0x844 <LCD4_Send>
     8ec:	81 e8       	ldi	r24, 0x81	; 129
     8ee:	61 e0       	ldi	r22, 0x01	; 1
     8f0:	a9 df       	rcall	.-174    	; 0x844 <LCD4_Send>
     8f2:	81 e8       	ldi	r24, 0x81	; 129
     8f4:	61 e0       	ldi	r22, 0x01	; 1
     8f6:	a6 df       	rcall	.-180    	; 0x844 <LCD4_Send>
     8f8:	8f ef       	ldi	r24, 0xFF	; 255
     8fa:	61 e0       	ldi	r22, 0x01	; 1
     8fc:	a3 df       	rcall	.-186    	; 0x844 <LCD4_Send>
     8fe:	88 e4       	ldi	r24, 0x48	; 72
     900:	60 e0       	ldi	r22, 0x00	; 0
     902:	a0 df       	rcall	.-192    	; 0x844 <LCD4_Send>
     904:	8c e7       	ldi	r24, 0x7C	; 124
     906:	61 e0       	ldi	r22, 0x01	; 1
     908:	9d df       	rcall	.-198    	; 0x844 <LCD4_Send>
     90a:	81 e8       	ldi	r24, 0x81	; 129
     90c:	61 e0       	ldi	r22, 0x01	; 1
     90e:	9a df       	rcall	.-204    	; 0x844 <LCD4_Send>
     910:	89 e9       	ldi	r24, 0x99	; 153
     912:	61 e0       	ldi	r22, 0x01	; 1
     914:	97 df       	rcall	.-210    	; 0x844 <LCD4_Send>
     916:	88 ef       	ldi	r24, 0xF8	; 248
     918:	61 e0       	ldi	r22, 0x01	; 1
     91a:	94 df       	rcall	.-216    	; 0x844 <LCD4_Send>
     91c:	89 e9       	ldi	r24, 0x99	; 153
     91e:	61 e0       	ldi	r22, 0x01	; 1
     920:	91 df       	rcall	.-222    	; 0x844 <LCD4_Send>
     922:	81 e8       	ldi	r24, 0x81	; 129
     924:	61 e0       	ldi	r22, 0x01	; 1
     926:	8e df       	rcall	.-228    	; 0x844 <LCD4_Send>
     928:	8c e7       	ldi	r24, 0x7C	; 124
     92a:	61 e0       	ldi	r22, 0x01	; 1
     92c:	8b df       	rcall	.-234    	; 0x844 <LCD4_Send>
     92e:	80 e5       	ldi	r24, 0x50	; 80
     930:	60 e0       	ldi	r22, 0x00	; 0
     932:	88 df       	rcall	.-240    	; 0x844 <LCD4_Send>
     934:	81 e0       	ldi	r24, 0x01	; 1
     936:	61 e0       	ldi	r22, 0x01	; 1
     938:	85 df       	rcall	.-246    	; 0x844 <LCD4_Send>
     93a:	83 e0       	ldi	r24, 0x03	; 3
     93c:	61 e0       	ldi	r22, 0x01	; 1
     93e:	82 df       	rcall	.-252    	; 0x844 <LCD4_Send>
     940:	87 e0       	ldi	r24, 0x07	; 7
     942:	61 e0       	ldi	r22, 0x01	; 1
     944:	7f df       	rcall	.-258    	; 0x844 <LCD4_Send>
     946:	8f e0       	ldi	r24, 0x0F	; 15
     948:	61 e0       	ldi	r22, 0x01	; 1
     94a:	7c df       	rcall	.-264    	; 0x844 <LCD4_Send>
     94c:	8f e3       	ldi	r24, 0x3F	; 63
     94e:	61 e0       	ldi	r22, 0x01	; 1
     950:	79 df       	rcall	.-270    	; 0x844 <LCD4_Send>
     952:	8f e0       	ldi	r24, 0x0F	; 15
     954:	61 e0       	ldi	r22, 0x01	; 1
     956:	76 df       	rcall	.-276    	; 0x844 <LCD4_Send>
     958:	87 e0       	ldi	r24, 0x07	; 7
     95a:	61 e0       	ldi	r22, 0x01	; 1
     95c:	73 df       	rcall	.-282    	; 0x844 <LCD4_Send>
     95e:	08 95       	ret

00000960 <lcd_putchar>:
     960:	8a 30       	cpi	r24, 0x0A	; 10
     962:	19 f4       	brne	.+6      	; 0x96a <lcd_putchar+0xa>
     964:	80 ec       	ldi	r24, 0xC0	; 192
     966:	60 e0       	ldi	r22, 0x00	; 0
     968:	01 c0       	rjmp	.+2      	; 0x96c <lcd_putchar+0xc>
     96a:	61 e0       	ldi	r22, 0x01	; 1
     96c:	6b df       	rcall	.-298    	; 0x844 <LCD4_Send>
     96e:	80 e0       	ldi	r24, 0x00	; 0
     970:	90 e0       	ldi	r25, 0x00	; 0
     972:	08 95       	ret

00000974 <resetHC161>:
     974:	c0 98       	cbi	0x18, 0	; 24
     976:	80 e4       	ldi	r24, 0x40	; 64
     978:	9c e9       	ldi	r25, 0x9C	; 156
     97a:	fc 01       	movw	r30, r24
     97c:	31 97       	sbiw	r30, 0x01	; 1
     97e:	f1 f7       	brne	.-4      	; 0x97c <resetHC161+0x8>
     980:	c0 9a       	sbi	0x18, 0	; 24
     982:	01 97       	sbiw	r24, 0x01	; 1
     984:	f1 f7       	brne	.-4      	; 0x982 <resetHC161+0xe>
     986:	08 95       	ret

00000988 <pulseHC161>:
     988:	20 e0       	ldi	r18, 0x00	; 0
     98a:	30 e0       	ldi	r19, 0x00	; 0
     98c:	40 e4       	ldi	r20, 0x40	; 64
     98e:	5c e9       	ldi	r21, 0x9C	; 156
     990:	0a c0       	rjmp	.+20     	; 0x9a6 <pulseHC161+0x1e>
     992:	c2 98       	cbi	0x18, 2	; 24
     994:	fa 01       	movw	r30, r20
     996:	31 97       	sbiw	r30, 0x01	; 1
     998:	f1 f7       	brne	.-4      	; 0x996 <pulseHC161+0xe>
     99a:	c2 9a       	sbi	0x18, 2	; 24
     99c:	fa 01       	movw	r30, r20
     99e:	31 97       	sbiw	r30, 0x01	; 1
     9a0:	f1 f7       	brne	.-4      	; 0x99e <pulseHC161+0x16>
     9a2:	2f 5f       	subi	r18, 0xFF	; 255
     9a4:	3f 4f       	sbci	r19, 0xFF	; 255
     9a6:	28 17       	cp	r18, r24
     9a8:	39 07       	cpc	r19, r25
     9aa:	98 f3       	brcs	.-26     	; 0x992 <pulseHC161+0xa>
     9ac:	08 95       	ret

000009ae <readHC161>:
     9ae:	80 b3       	in	r24, 0x10	; 16
     9b0:	90 e0       	ldi	r25, 0x00	; 0
     9b2:	81 70       	andi	r24, 0x01	; 1
     9b4:	90 70       	andi	r25, 0x00	; 0
     9b6:	81 99       	sbic	0x10, 1	; 16
     9b8:	02 96       	adiw	r24, 0x02	; 2
     9ba:	86 99       	sbic	0x10, 6	; 16
     9bc:	04 96       	adiw	r24, 0x04	; 4
     9be:	87 99       	sbic	0x10, 7	; 16
     9c0:	08 96       	adiw	r24, 0x08	; 8
     9c2:	08 95       	ret

000009c4 <__vector_9>:
     9c4:	1f 92       	push	r1
     9c6:	0f 92       	push	r0
     9c8:	0f b6       	in	r0, 0x3f	; 63
     9ca:	0f 92       	push	r0
     9cc:	11 24       	eor	r1, r1
     9ce:	8f 93       	push	r24
     9d0:	9f 93       	push	r25
     9d2:	af 93       	push	r26
     9d4:	bf 93       	push	r27
     9d6:	80 91 aa 00 	lds	r24, 0x00AA
     9da:	90 91 ab 00 	lds	r25, 0x00AB
     9de:	a0 91 ac 00 	lds	r26, 0x00AC
     9e2:	b0 91 ad 00 	lds	r27, 0x00AD
     9e6:	01 96       	adiw	r24, 0x01	; 1
     9e8:	a1 1d       	adc	r26, r1
     9ea:	b1 1d       	adc	r27, r1
     9ec:	80 93 aa 00 	sts	0x00AA, r24
     9f0:	90 93 ab 00 	sts	0x00AB, r25
     9f4:	a0 93 ac 00 	sts	0x00AC, r26
     9f8:	b0 93 ad 00 	sts	0x00AD, r27
     9fc:	bf 91       	pop	r27
     9fe:	af 91       	pop	r26
     a00:	9f 91       	pop	r25
     a02:	8f 91       	pop	r24
     a04:	0f 90       	pop	r0
     a06:	0f be       	out	0x3f, r0	; 63
     a08:	0f 90       	pop	r0
     a0a:	1f 90       	pop	r1
     a0c:	18 95       	reti

00000a0e <__vector_1>:
     a0e:	1f 92       	push	r1
     a10:	0f 92       	push	r0
     a12:	0f b6       	in	r0, 0x3f	; 63
     a14:	0f 92       	push	r0
     a16:	11 24       	eor	r1, r1
     a18:	8f 93       	push	r24
     a1a:	82 e0       	ldi	r24, 0x02	; 2
     a1c:	80 93 d7 00 	sts	0x00D7, r24
     a20:	8f 91       	pop	r24
     a22:	0f 90       	pop	r0
     a24:	0f be       	out	0x3f, r0	; 63
     a26:	0f 90       	pop	r0
     a28:	1f 90       	pop	r1
     a2a:	18 95       	reti

00000a2c <__vector_2>:
     a2c:	1f 92       	push	r1
     a2e:	0f 92       	push	r0
     a30:	0f b6       	in	r0, 0x3f	; 63
     a32:	0f 92       	push	r0
     a34:	11 24       	eor	r1, r1
     a36:	8f 93       	push	r24
     a38:	83 e0       	ldi	r24, 0x03	; 3
     a3a:	80 93 d7 00 	sts	0x00D7, r24
     a3e:	8f 91       	pop	r24
     a40:	0f 90       	pop	r0
     a42:	0f be       	out	0x3f, r0	; 63
     a44:	0f 90       	pop	r0
     a46:	1f 90       	pop	r1
     a48:	18 95       	reti

00000a4a <main>:
     a4a:	af 92       	push	r10
     a4c:	bf 92       	push	r11
     a4e:	cf 92       	push	r12
     a50:	df 92       	push	r13
     a52:	ef 92       	push	r14
     a54:	ff 92       	push	r15
     a56:	0f 93       	push	r16
     a58:	1f 93       	push	r17
     a5a:	cf 93       	push	r28
     a5c:	df 93       	push	r29
     a5e:	87 e0       	ldi	r24, 0x07	; 7
     a60:	87 bb       	out	0x17, r24	; 23
     a62:	88 b3       	in	r24, 0x18	; 24
     a64:	85 60       	ori	r24, 0x05	; 5
     a66:	88 bb       	out	0x18, r24	; 24
     a68:	82 b3       	in	r24, 0x12	; 18
     a6a:	8c 60       	ori	r24, 0x0C	; 12
     a6c:	82 bb       	out	0x12, r24	; 18
     a6e:	88 ee       	ldi	r24, 0xE8	; 232
     a70:	93 e0       	ldi	r25, 0x03	; 3
     a72:	20 e9       	ldi	r18, 0x90	; 144
     a74:	31 e0       	ldi	r19, 0x01	; 1
     a76:	f9 01       	movw	r30, r18
     a78:	31 97       	sbiw	r30, 0x01	; 1
     a7a:	f1 f7       	brne	.-4      	; 0xa78 <main+0x2e>
     a7c:	01 97       	sbiw	r24, 0x01	; 1
     a7e:	d9 f7       	brne	.-10     	; 0xa76 <main+0x2c>
     a80:	8f e3       	ldi	r24, 0x3F	; 63
     a82:	84 bb       	out	0x14, r24	; 20
     a84:	28 ee       	ldi	r18, 0xE8	; 232
     a86:	33 e0       	ldi	r19, 0x03	; 3
     a88:	40 e9       	ldi	r20, 0x90	; 144
     a8a:	51 e0       	ldi	r21, 0x01	; 1
     a8c:	ca 01       	movw	r24, r20
     a8e:	01 97       	sbiw	r24, 0x01	; 1
     a90:	f1 f7       	brne	.-4      	; 0xa8e <main+0x44>
     a92:	21 50       	subi	r18, 0x01	; 1
     a94:	30 40       	sbci	r19, 0x00	; 0
     a96:	d1 f7       	brne	.-12     	; 0xa8c <main+0x42>
     a98:	82 e1       	ldi	r24, 0x12	; 18
     a9a:	85 bb       	out	0x15, r24	; 21
     a9c:	80 e9       	ldi	r24, 0x90	; 144
     a9e:	91 e0       	ldi	r25, 0x01	; 1
     aa0:	01 97       	sbiw	r24, 0x01	; 1
     aa2:	f1 f7       	brne	.-4      	; 0xaa0 <main+0x56>
     aa4:	ac 98       	cbi	0x15, 4	; 21
     aa6:	88 ee       	ldi	r24, 0xE8	; 232
     aa8:	93 e0       	ldi	r25, 0x03	; 3
     aaa:	20 e9       	ldi	r18, 0x90	; 144
     aac:	31 e0       	ldi	r19, 0x01	; 1
     aae:	f9 01       	movw	r30, r18
     ab0:	31 97       	sbiw	r30, 0x01	; 1
     ab2:	f1 f7       	brne	.-4      	; 0xab0 <main+0x66>
     ab4:	01 97       	sbiw	r24, 0x01	; 1
     ab6:	d9 f7       	brne	.-10     	; 0xaae <main+0x64>
     ab8:	88 e2       	ldi	r24, 0x28	; 40
     aba:	60 e0       	ldi	r22, 0x00	; 0
     abc:	c3 de       	rcall	.-634    	; 0x844 <LCD4_Send>
     abe:	81 e0       	ldi	r24, 0x01	; 1
     ac0:	60 e0       	ldi	r22, 0x00	; 0
     ac2:	c0 de       	rcall	.-640    	; 0x844 <LCD4_Send>
     ac4:	86 e0       	ldi	r24, 0x06	; 6
     ac6:	60 e0       	ldi	r22, 0x00	; 0
     ac8:	bd de       	rcall	.-646    	; 0x844 <LCD4_Send>
     aca:	8c e0       	ldi	r24, 0x0C	; 12
     acc:	60 e0       	ldi	r22, 0x00	; 0
     ace:	ba de       	rcall	.-652    	; 0x844 <LCD4_Send>
     ad0:	81 e0       	ldi	r24, 0x01	; 1
     ad2:	60 e0       	ldi	r22, 0x00	; 0
     ad4:	b7 de       	rcall	.-658    	; 0x844 <LCD4_Send>
     ad6:	81 e0       	ldi	r24, 0x01	; 1
     ad8:	60 e0       	ldi	r22, 0x00	; 0
     ada:	b4 de       	rcall	.-664    	; 0x844 <LCD4_Send>
     adc:	8b e9       	ldi	r24, 0x9B	; 155
     ade:	90 e0       	ldi	r25, 0x00	; 0
     ae0:	90 93 db 00 	sts	0x00DB, r25
     ae4:	80 93 da 00 	sts	0x00DA, r24
     ae8:	8e e2       	ldi	r24, 0x2E	; 46
     aea:	90 e0       	ldi	r25, 0x00	; 0
     aec:	d2 de       	rcall	.-604    	; 0x892 <LCD_pgm_text>
     aee:	80 e4       	ldi	r24, 0x40	; 64
     af0:	8f bd       	out	0x2f, r24	; 47
     af2:	8d e0       	ldi	r24, 0x0D	; 13
     af4:	8e bd       	out	0x2e, r24	; 46
     af6:	88 e0       	ldi	r24, 0x08	; 8
     af8:	9d e3       	ldi	r25, 0x3D	; 61
     afa:	9b bd       	out	0x2b, r25	; 43
     afc:	8a bd       	out	0x2a, r24	; 42
     afe:	87 e0       	ldi	r24, 0x07	; 7
     b00:	83 bf       	out	0x33, r24	; 51
     b02:	81 e0       	ldi	r24, 0x01	; 1
     b04:	89 bf       	out	0x39, r24	; 57
     b06:	8b b7       	in	r24, 0x3b	; 59
     b08:	80 6c       	ori	r24, 0xC0	; 192
     b0a:	8b bf       	out	0x3b, r24	; 59
     b0c:	85 b7       	in	r24, 0x35	; 53
     b0e:	82 60       	ori	r24, 0x02	; 2
     b10:	85 bf       	out	0x35, r24	; 53
     b12:	00 d0       	rcall	.+0      	; 0xb14 <main+0xca>
     b14:	00 d0       	rcall	.+0      	; 0xb16 <main+0xcc>
     b16:	80 e6       	ldi	r24, 0x60	; 96
     b18:	90 e0       	ldi	r25, 0x00	; 0
     b1a:	ad b7       	in	r26, 0x3d	; 61
     b1c:	be b7       	in	r27, 0x3e	; 62
     b1e:	12 96       	adiw	r26, 0x02	; 2
     b20:	9c 93       	st	X, r25
     b22:	8e 93       	st	-X, r24
     b24:	11 97       	sbiw	r26, 0x01	; 1
     b26:	83 e0       	ldi	r24, 0x03	; 3
     b28:	90 e0       	ldi	r25, 0x00	; 0
     b2a:	14 96       	adiw	r26, 0x04	; 4
     b2c:	9c 93       	st	X, r25
     b2e:	8e 93       	st	-X, r24
     b30:	13 97       	sbiw	r26, 0x03	; 3
     b32:	eb d1       	rcall	.+982    	; 0xf0a <printf>
     b34:	c0 e0       	ldi	r28, 0x00	; 0
     b36:	d0 e0       	ldi	r29, 0x00	; 0
     b38:	0f 90       	pop	r0
     b3a:	0f 90       	pop	r0
     b3c:	0f 90       	pop	r0
     b3e:	0f 90       	pop	r0
     b40:	20 e9       	ldi	r18, 0x90	; 144
     b42:	e2 2e       	mov	r14, r18
     b44:	21 e0       	ldi	r18, 0x01	; 1
     b46:	f2 2e       	mov	r15, r18
     b48:	00 e4       	ldi	r16, 0x40	; 64
     b4a:	1c e9       	ldi	r17, 0x9C	; 156
     b4c:	92 e7       	ldi	r25, 0x72	; 114
     b4e:	a9 2e       	mov	r10, r25
     b50:	90 e0       	ldi	r25, 0x00	; 0
     b52:	b9 2e       	mov	r11, r25
     b54:	8c e7       	ldi	r24, 0x7C	; 124
     b56:	c8 2e       	mov	r12, r24
     b58:	80 e0       	ldi	r24, 0x00	; 0
     b5a:	d8 2e       	mov	r13, r24
     b5c:	54 c0       	rjmp	.+168    	; 0xc06 <main+0x1bc>
     b5e:	f7 01       	movw	r30, r14
     b60:	31 97       	sbiw	r30, 0x01	; 1
     b62:	f1 f7       	brne	.-4      	; 0xb60 <main+0x116>
     b64:	01 97       	sbiw	r24, 0x01	; 1
     b66:	d9 f7       	brne	.-10     	; 0xb5e <main+0x114>
     b68:	c0 98       	cbi	0x18, 0	; 24
     b6a:	c8 01       	movw	r24, r16
     b6c:	01 97       	sbiw	r24, 0x01	; 1
     b6e:	f1 f7       	brne	.-4      	; 0xb6c <main+0x122>
     b70:	c0 9a       	sbi	0x18, 0	; 24
     b72:	c8 01       	movw	r24, r16
     b74:	01 97       	sbiw	r24, 0x01	; 1
     b76:	f1 f7       	brne	.-4      	; 0xb74 <main+0x12a>
     b78:	84 ef       	ldi	r24, 0xF4	; 244
     b7a:	91 e0       	ldi	r25, 0x01	; 1
     b7c:	f7 01       	movw	r30, r14
     b7e:	31 97       	sbiw	r30, 0x01	; 1
     b80:	f1 f7       	brne	.-4      	; 0xb7e <main+0x134>
     b82:	01 97       	sbiw	r24, 0x01	; 1
     b84:	d9 f7       	brne	.-10     	; 0xb7c <main+0x132>
     b86:	20 e0       	ldi	r18, 0x00	; 0
     b88:	30 e0       	ldi	r19, 0x00	; 0
     b8a:	0a c0       	rjmp	.+20     	; 0xba0 <main+0x156>
     b8c:	c2 98       	cbi	0x18, 2	; 24
     b8e:	c8 01       	movw	r24, r16
     b90:	01 97       	sbiw	r24, 0x01	; 1
     b92:	f1 f7       	brne	.-4      	; 0xb90 <main+0x146>
     b94:	c2 9a       	sbi	0x18, 2	; 24
     b96:	c8 01       	movw	r24, r16
     b98:	01 97       	sbiw	r24, 0x01	; 1
     b9a:	f1 f7       	brne	.-4      	; 0xb98 <main+0x14e>
     b9c:	2f 5f       	subi	r18, 0xFF	; 255
     b9e:	3f 4f       	sbci	r19, 0xFF	; 255
     ba0:	2c 17       	cp	r18, r28
     ba2:	3d 07       	cpc	r19, r29
     ba4:	98 f3       	brcs	.-26     	; 0xb8c <main+0x142>
     ba6:	84 ef       	ldi	r24, 0xF4	; 244
     ba8:	91 e0       	ldi	r25, 0x01	; 1
     baa:	f7 01       	movw	r30, r14
     bac:	31 97       	sbiw	r30, 0x01	; 1
     bae:	f1 f7       	brne	.-4      	; 0xbac <main+0x162>
     bb0:	01 97       	sbiw	r24, 0x01	; 1
     bb2:	d9 f7       	brne	.-10     	; 0xbaa <main+0x160>
     bb4:	80 e0       	ldi	r24, 0x00	; 0
     bb6:	60 e0       	ldi	r22, 0x00	; 0
     bb8:	7f de       	rcall	.-770    	; 0x8b8 <LCD_XY>
     bba:	00 d0       	rcall	.+0      	; 0xbbc <main+0x172>
     bbc:	00 d0       	rcall	.+0      	; 0xbbe <main+0x174>
     bbe:	ed b7       	in	r30, 0x3d	; 61
     bc0:	fe b7       	in	r31, 0x3e	; 62
     bc2:	b2 82       	std	Z+2, r11	; 0x02
     bc4:	a1 82       	std	Z+1, r10	; 0x01
     bc6:	d4 83       	std	Z+4, r29	; 0x04
     bc8:	c3 83       	std	Z+3, r28	; 0x03
     bca:	9f d1       	rcall	.+830    	; 0xf0a <printf>
     bcc:	0f 90       	pop	r0
     bce:	0f 90       	pop	r0
     bd0:	0f 90       	pop	r0
     bd2:	0f 90       	pop	r0
     bd4:	ec de       	rcall	.-552    	; 0x9ae <readHC161>
     bd6:	00 d0       	rcall	.+0      	; 0xbd8 <main+0x18e>
     bd8:	00 d0       	rcall	.+0      	; 0xbda <main+0x190>
     bda:	ed b7       	in	r30, 0x3d	; 61
     bdc:	fe b7       	in	r31, 0x3e	; 62
     bde:	31 96       	adiw	r30, 0x01	; 1
     be0:	ad b7       	in	r26, 0x3d	; 61
     be2:	be b7       	in	r27, 0x3e	; 62
     be4:	12 96       	adiw	r26, 0x02	; 2
     be6:	dc 92       	st	X, r13
     be8:	ce 92       	st	-X, r12
     bea:	11 97       	sbiw	r26, 0x01	; 1
     bec:	82 83       	std	Z+2, r24	; 0x02
     bee:	13 82       	std	Z+3, r1	; 0x03
     bf0:	8c d1       	rcall	.+792    	; 0xf0a <printf>
     bf2:	21 96       	adiw	r28, 0x01	; 1
     bf4:	0f 90       	pop	r0
     bf6:	0f 90       	pop	r0
     bf8:	0f 90       	pop	r0
     bfa:	0f 90       	pop	r0
     bfc:	c8 35       	cpi	r28, 0x58	; 88
     bfe:	d1 05       	cpc	r29, r1
     c00:	10 f0       	brcs	.+4      	; 0xc06 <main+0x1bc>
     c02:	c0 e0       	ldi	r28, 0x00	; 0
     c04:	d0 e0       	ldi	r29, 0x00	; 0
     c06:	88 e8       	ldi	r24, 0x88	; 136
     c08:	93 e1       	ldi	r25, 0x13	; 19
     c0a:	a9 cf       	rjmp	.-174    	; 0xb5e <main+0x114>

00000c0c <startDebug>:
     c0c:	80 e0       	ldi	r24, 0x00	; 0
     c0e:	60 e0       	ldi	r22, 0x00	; 0
     c10:	53 de       	rcall	.-858    	; 0x8b8 <LCD_XY>
     c12:	00 d0       	rcall	.+0      	; 0xc14 <startDebug+0x8>
     c14:	00 d0       	rcall	.+0      	; 0xc16 <startDebug+0xa>
     c16:	89 e8       	ldi	r24, 0x89	; 137
     c18:	90 e0       	ldi	r25, 0x00	; 0
     c1a:	ed b7       	in	r30, 0x3d	; 61
     c1c:	fe b7       	in	r31, 0x3e	; 62
     c1e:	92 83       	std	Z+2, r25	; 0x02
     c20:	81 83       	std	Z+1, r24	; 0x01
     c22:	83 e0       	ldi	r24, 0x03	; 3
     c24:	90 e0       	ldi	r25, 0x00	; 0
     c26:	94 83       	std	Z+4, r25	; 0x04
     c28:	83 83       	std	Z+3, r24	; 0x03
     c2a:	6f d1       	rcall	.+734    	; 0xf0a <printf>
     c2c:	20 e1       	ldi	r18, 0x10	; 16
     c2e:	37 e2       	ldi	r19, 0x27	; 39
     c30:	0f 90       	pop	r0
     c32:	0f 90       	pop	r0
     c34:	0f 90       	pop	r0
     c36:	0f 90       	pop	r0
     c38:	40 e9       	ldi	r20, 0x90	; 144
     c3a:	51 e0       	ldi	r21, 0x01	; 1
     c3c:	ca 01       	movw	r24, r20
     c3e:	01 97       	sbiw	r24, 0x01	; 1
     c40:	f1 f7       	brne	.-4      	; 0xc3e <startDebug+0x32>
     c42:	21 50       	subi	r18, 0x01	; 1
     c44:	30 40       	sbci	r19, 0x00	; 0
     c46:	d1 f7       	brne	.-12     	; 0xc3c <startDebug+0x30>
     c48:	08 95       	ret

00000c4a <LCD_Int>:
     c4a:	1f 93       	push	r17
     c4c:	4e ea       	ldi	r20, 0xAE	; 174
     c4e:	50 e0       	ldi	r21, 0x00	; 0
     c50:	2a e0       	ldi	r18, 0x0A	; 10
     c52:	30 e0       	ldi	r19, 0x00	; 0
     c54:	fc d0       	rcall	.+504    	; 0xe4e <ltoa>
     c56:	10 e0       	ldi	r17, 0x00	; 0
     c58:	03 c0       	rjmp	.+6      	; 0xc60 <LCD_Int+0x16>
     c5a:	1f 5f       	subi	r17, 0xFF	; 255
     c5c:	61 e0       	ldi	r22, 0x01	; 1
     c5e:	f2 dd       	rcall	.-1052   	; 0x844 <LCD4_Send>
     c60:	e1 2f       	mov	r30, r17
     c62:	f0 e0       	ldi	r31, 0x00	; 0
     c64:	e2 55       	subi	r30, 0x52	; 82
     c66:	ff 4f       	sbci	r31, 0xFF	; 255
     c68:	80 81       	ld	r24, Z
     c6a:	88 23       	and	r24, r24
     c6c:	b1 f7       	brne	.-20     	; 0xc5a <LCD_Int+0x10>
     c6e:	1f 91       	pop	r17
     c70:	08 95       	ret

00000c72 <__ftoa_engine>:
     c72:	28 30       	cpi	r18, 0x08	; 8
     c74:	08 f0       	brcs	.+2      	; 0xc78 <__ftoa_engine+0x6>
     c76:	27 e0       	ldi	r18, 0x07	; 7
     c78:	33 27       	eor	r19, r19
     c7a:	da 01       	movw	r26, r20
     c7c:	99 0f       	add	r25, r25
     c7e:	31 1d       	adc	r19, r1
     c80:	87 fd       	sbrc	r24, 7
     c82:	91 60       	ori	r25, 0x01	; 1
     c84:	00 96       	adiw	r24, 0x00	; 0
     c86:	61 05       	cpc	r22, r1
     c88:	71 05       	cpc	r23, r1
     c8a:	39 f4       	brne	.+14     	; 0xc9a <__ftoa_engine+0x28>
     c8c:	32 60       	ori	r19, 0x02	; 2
     c8e:	2e 5f       	subi	r18, 0xFE	; 254
     c90:	3d 93       	st	X+, r19
     c92:	30 e3       	ldi	r19, 0x30	; 48
     c94:	2a 95       	dec	r18
     c96:	e1 f7       	brne	.-8      	; 0xc90 <__ftoa_engine+0x1e>
     c98:	08 95       	ret
     c9a:	9f 3f       	cpi	r25, 0xFF	; 255
     c9c:	30 f0       	brcs	.+12     	; 0xcaa <__ftoa_engine+0x38>
     c9e:	80 38       	cpi	r24, 0x80	; 128
     ca0:	71 05       	cpc	r23, r1
     ca2:	61 05       	cpc	r22, r1
     ca4:	09 f0       	breq	.+2      	; 0xca8 <__ftoa_engine+0x36>
     ca6:	3c 5f       	subi	r19, 0xFC	; 252
     ca8:	3c 5f       	subi	r19, 0xFC	; 252
     caa:	3d 93       	st	X+, r19
     cac:	91 30       	cpi	r25, 0x01	; 1
     cae:	08 f0       	brcs	.+2      	; 0xcb2 <__ftoa_engine+0x40>
     cb0:	80 68       	ori	r24, 0x80	; 128
     cb2:	91 1d       	adc	r25, r1
     cb4:	df 93       	push	r29
     cb6:	cf 93       	push	r28
     cb8:	1f 93       	push	r17
     cba:	0f 93       	push	r16
     cbc:	ff 92       	push	r15
     cbe:	ef 92       	push	r14
     cc0:	19 2f       	mov	r17, r25
     cc2:	98 7f       	andi	r25, 0xF8	; 248
     cc4:	96 95       	lsr	r25
     cc6:	e9 2f       	mov	r30, r25
     cc8:	96 95       	lsr	r25
     cca:	96 95       	lsr	r25
     ccc:	e9 0f       	add	r30, r25
     cce:	ff 27       	eor	r31, r31
     cd0:	e8 56       	subi	r30, 0x68	; 104
     cd2:	ff 4f       	sbci	r31, 0xFF	; 255
     cd4:	99 27       	eor	r25, r25
     cd6:	33 27       	eor	r19, r19
     cd8:	ee 24       	eor	r14, r14
     cda:	ff 24       	eor	r15, r15
     cdc:	a7 01       	movw	r20, r14
     cde:	e7 01       	movw	r28, r14
     ce0:	05 90       	lpm	r0, Z+
     ce2:	08 94       	sec
     ce4:	07 94       	ror	r0
     ce6:	28 f4       	brcc	.+10     	; 0xcf2 <__ftoa_engine+0x80>
     ce8:	36 0f       	add	r19, r22
     cea:	e7 1e       	adc	r14, r23
     cec:	f8 1e       	adc	r15, r24
     cee:	49 1f       	adc	r20, r25
     cf0:	51 1d       	adc	r21, r1
     cf2:	66 0f       	add	r22, r22
     cf4:	77 1f       	adc	r23, r23
     cf6:	88 1f       	adc	r24, r24
     cf8:	99 1f       	adc	r25, r25
     cfa:	06 94       	lsr	r0
     cfc:	a1 f7       	brne	.-24     	; 0xce6 <__ftoa_engine+0x74>
     cfe:	05 90       	lpm	r0, Z+
     d00:	07 94       	ror	r0
     d02:	28 f4       	brcc	.+10     	; 0xd0e <__ftoa_engine+0x9c>
     d04:	e7 0e       	add	r14, r23
     d06:	f8 1e       	adc	r15, r24
     d08:	49 1f       	adc	r20, r25
     d0a:	56 1f       	adc	r21, r22
     d0c:	c1 1d       	adc	r28, r1
     d0e:	77 0f       	add	r23, r23
     d10:	88 1f       	adc	r24, r24
     d12:	99 1f       	adc	r25, r25
     d14:	66 1f       	adc	r22, r22
     d16:	06 94       	lsr	r0
     d18:	a1 f7       	brne	.-24     	; 0xd02 <__ftoa_engine+0x90>
     d1a:	05 90       	lpm	r0, Z+
     d1c:	07 94       	ror	r0
     d1e:	28 f4       	brcc	.+10     	; 0xd2a <__ftoa_engine+0xb8>
     d20:	f8 0e       	add	r15, r24
     d22:	49 1f       	adc	r20, r25
     d24:	56 1f       	adc	r21, r22
     d26:	c7 1f       	adc	r28, r23
     d28:	d1 1d       	adc	r29, r1
     d2a:	88 0f       	add	r24, r24
     d2c:	99 1f       	adc	r25, r25
     d2e:	66 1f       	adc	r22, r22
     d30:	77 1f       	adc	r23, r23
     d32:	06 94       	lsr	r0
     d34:	a1 f7       	brne	.-24     	; 0xd1e <__ftoa_engine+0xac>
     d36:	05 90       	lpm	r0, Z+
     d38:	07 94       	ror	r0
     d3a:	20 f4       	brcc	.+8      	; 0xd44 <__ftoa_engine+0xd2>
     d3c:	49 0f       	add	r20, r25
     d3e:	56 1f       	adc	r21, r22
     d40:	c7 1f       	adc	r28, r23
     d42:	d8 1f       	adc	r29, r24
     d44:	99 0f       	add	r25, r25
     d46:	66 1f       	adc	r22, r22
     d48:	77 1f       	adc	r23, r23
     d4a:	88 1f       	adc	r24, r24
     d4c:	06 94       	lsr	r0
     d4e:	a9 f7       	brne	.-22     	; 0xd3a <__ftoa_engine+0xc8>
     d50:	84 91       	lpm	r24, Z+
     d52:	10 95       	com	r17
     d54:	17 70       	andi	r17, 0x07	; 7
     d56:	41 f0       	breq	.+16     	; 0xd68 <__ftoa_engine+0xf6>
     d58:	d6 95       	lsr	r29
     d5a:	c7 95       	ror	r28
     d5c:	57 95       	ror	r21
     d5e:	47 95       	ror	r20
     d60:	f7 94       	ror	r15
     d62:	e7 94       	ror	r14
     d64:	1a 95       	dec	r17
     d66:	c1 f7       	brne	.-16     	; 0xd58 <__ftoa_engine+0xe6>
     d68:	ee e3       	ldi	r30, 0x3E	; 62
     d6a:	f0 e0       	ldi	r31, 0x00	; 0
     d6c:	68 94       	set
     d6e:	15 90       	lpm	r1, Z+
     d70:	15 91       	lpm	r17, Z+
     d72:	35 91       	lpm	r19, Z+
     d74:	65 91       	lpm	r22, Z+
     d76:	95 91       	lpm	r25, Z+
     d78:	05 90       	lpm	r0, Z+
     d7a:	7f e2       	ldi	r23, 0x2F	; 47
     d7c:	73 95       	inc	r23
     d7e:	e1 18       	sub	r14, r1
     d80:	f1 0a       	sbc	r15, r17
     d82:	43 0b       	sbc	r20, r19
     d84:	56 0b       	sbc	r21, r22
     d86:	c9 0b       	sbc	r28, r25
     d88:	d0 09       	sbc	r29, r0
     d8a:	c0 f7       	brcc	.-16     	; 0xd7c <__ftoa_engine+0x10a>
     d8c:	e1 0c       	add	r14, r1
     d8e:	f1 1e       	adc	r15, r17
     d90:	43 1f       	adc	r20, r19
     d92:	56 1f       	adc	r21, r22
     d94:	c9 1f       	adc	r28, r25
     d96:	d0 1d       	adc	r29, r0
     d98:	7e f4       	brtc	.+30     	; 0xdb8 <__ftoa_engine+0x146>
     d9a:	70 33       	cpi	r23, 0x30	; 48
     d9c:	11 f4       	brne	.+4      	; 0xda2 <__ftoa_engine+0x130>
     d9e:	8a 95       	dec	r24
     da0:	e6 cf       	rjmp	.-52     	; 0xd6e <__ftoa_engine+0xfc>
     da2:	e8 94       	clt
     da4:	01 50       	subi	r16, 0x01	; 1
     da6:	30 f0       	brcs	.+12     	; 0xdb4 <__ftoa_engine+0x142>
     da8:	08 0f       	add	r16, r24
     daa:	0a f4       	brpl	.+2      	; 0xdae <__ftoa_engine+0x13c>
     dac:	00 27       	eor	r16, r16
     dae:	02 17       	cp	r16, r18
     db0:	08 f4       	brcc	.+2      	; 0xdb4 <__ftoa_engine+0x142>
     db2:	20 2f       	mov	r18, r16
     db4:	23 95       	inc	r18
     db6:	02 2f       	mov	r16, r18
     db8:	7a 33       	cpi	r23, 0x3A	; 58
     dba:	28 f0       	brcs	.+10     	; 0xdc6 <__ftoa_engine+0x154>
     dbc:	79 e3       	ldi	r23, 0x39	; 57
     dbe:	7d 93       	st	X+, r23
     dc0:	2a 95       	dec	r18
     dc2:	e9 f7       	brne	.-6      	; 0xdbe <__ftoa_engine+0x14c>
     dc4:	10 c0       	rjmp	.+32     	; 0xde6 <__ftoa_engine+0x174>
     dc6:	7d 93       	st	X+, r23
     dc8:	2a 95       	dec	r18
     dca:	89 f6       	brne	.-94     	; 0xd6e <__ftoa_engine+0xfc>
     dcc:	06 94       	lsr	r0
     dce:	97 95       	ror	r25
     dd0:	67 95       	ror	r22
     dd2:	37 95       	ror	r19
     dd4:	17 95       	ror	r17
     dd6:	17 94       	ror	r1
     dd8:	e1 18       	sub	r14, r1
     dda:	f1 0a       	sbc	r15, r17
     ddc:	43 0b       	sbc	r20, r19
     dde:	56 0b       	sbc	r21, r22
     de0:	c9 0b       	sbc	r28, r25
     de2:	d0 09       	sbc	r29, r0
     de4:	98 f0       	brcs	.+38     	; 0xe0c <__ftoa_engine+0x19a>
     de6:	23 95       	inc	r18
     de8:	7e 91       	ld	r23, -X
     dea:	73 95       	inc	r23
     dec:	7a 33       	cpi	r23, 0x3A	; 58
     dee:	08 f0       	brcs	.+2      	; 0xdf2 <__ftoa_engine+0x180>
     df0:	70 e3       	ldi	r23, 0x30	; 48
     df2:	7c 93       	st	X, r23
     df4:	20 13       	cpse	r18, r16
     df6:	b8 f7       	brcc	.-18     	; 0xde6 <__ftoa_engine+0x174>
     df8:	7e 91       	ld	r23, -X
     dfa:	70 61       	ori	r23, 0x10	; 16
     dfc:	7d 93       	st	X+, r23
     dfe:	30 f0       	brcs	.+12     	; 0xe0c <__ftoa_engine+0x19a>
     e00:	83 95       	inc	r24
     e02:	71 e3       	ldi	r23, 0x31	; 49
     e04:	7d 93       	st	X+, r23
     e06:	70 e3       	ldi	r23, 0x30	; 48
     e08:	2a 95       	dec	r18
     e0a:	e1 f7       	brne	.-8      	; 0xe04 <__ftoa_engine+0x192>
     e0c:	11 24       	eor	r1, r1
     e0e:	ef 90       	pop	r14
     e10:	ff 90       	pop	r15
     e12:	0f 91       	pop	r16
     e14:	1f 91       	pop	r17
     e16:	cf 91       	pop	r28
     e18:	df 91       	pop	r29
     e1a:	99 27       	eor	r25, r25
     e1c:	87 fd       	sbrc	r24, 7
     e1e:	90 95       	com	r25
     e20:	08 95       	ret

00000e22 <strnlen_P>:
     e22:	fc 01       	movw	r30, r24
     e24:	05 90       	lpm	r0, Z+
     e26:	61 50       	subi	r22, 0x01	; 1
     e28:	70 40       	sbci	r23, 0x00	; 0
     e2a:	01 10       	cpse	r0, r1
     e2c:	d8 f7       	brcc	.-10     	; 0xe24 <strnlen_P+0x2>
     e2e:	80 95       	com	r24
     e30:	90 95       	com	r25
     e32:	8e 0f       	add	r24, r30
     e34:	9f 1f       	adc	r25, r31
     e36:	08 95       	ret

00000e38 <strnlen>:
     e38:	fc 01       	movw	r30, r24
     e3a:	61 50       	subi	r22, 0x01	; 1
     e3c:	70 40       	sbci	r23, 0x00	; 0
     e3e:	01 90       	ld	r0, Z+
     e40:	01 10       	cpse	r0, r1
     e42:	d8 f7       	brcc	.-10     	; 0xe3a <strnlen+0x2>
     e44:	80 95       	com	r24
     e46:	90 95       	com	r25
     e48:	8e 0f       	add	r24, r30
     e4a:	9f 1f       	adc	r25, r31
     e4c:	08 95       	ret

00000e4e <ltoa>:
     e4e:	fa 01       	movw	r30, r20
     e50:	cf 93       	push	r28
     e52:	ff 93       	push	r31
     e54:	ef 93       	push	r30
     e56:	22 30       	cpi	r18, 0x02	; 2
     e58:	3c f1       	brlt	.+78     	; 0xea8 <ltoa+0x5a>
     e5a:	25 32       	cpi	r18, 0x25	; 37
     e5c:	2c f5       	brge	.+74     	; 0xea8 <ltoa+0x5a>
     e5e:	c2 2f       	mov	r28, r18
     e60:	e8 94       	clt
     e62:	ca 30       	cpi	r28, 0x0A	; 10
     e64:	49 f4       	brne	.+18     	; 0xe78 <ltoa+0x2a>
     e66:	97 fb       	bst	r25, 7
     e68:	3e f4       	brtc	.+14     	; 0xe78 <ltoa+0x2a>
     e6a:	90 95       	com	r25
     e6c:	80 95       	com	r24
     e6e:	70 95       	com	r23
     e70:	61 95       	neg	r22
     e72:	7f 4f       	sbci	r23, 0xFF	; 255
     e74:	8f 4f       	sbci	r24, 0xFF	; 255
     e76:	9f 4f       	sbci	r25, 0xFF	; 255
     e78:	2c 2f       	mov	r18, r28
     e7a:	33 27       	eor	r19, r19
     e7c:	44 27       	eor	r20, r20
     e7e:	55 27       	eor	r21, r21
     e80:	ff 93       	push	r31
     e82:	ef 93       	push	r30
     e84:	f9 d0       	rcall	.+498    	; 0x1078 <__udivmodsi4>
     e86:	ef 91       	pop	r30
     e88:	ff 91       	pop	r31
     e8a:	60 5d       	subi	r22, 0xD0	; 208
     e8c:	6a 33       	cpi	r22, 0x3A	; 58
     e8e:	0c f0       	brlt	.+2      	; 0xe92 <ltoa+0x44>
     e90:	69 5d       	subi	r22, 0xD9	; 217
     e92:	61 93       	st	Z+, r22
     e94:	b9 01       	movw	r22, r18
     e96:	ca 01       	movw	r24, r20
     e98:	60 50       	subi	r22, 0x00	; 0
     e9a:	70 40       	sbci	r23, 0x00	; 0
     e9c:	80 40       	sbci	r24, 0x00	; 0
     e9e:	90 40       	sbci	r25, 0x00	; 0
     ea0:	59 f7       	brne	.-42     	; 0xe78 <ltoa+0x2a>
     ea2:	16 f4       	brtc	.+4      	; 0xea8 <ltoa+0x5a>
     ea4:	cd e2       	ldi	r28, 0x2D	; 45
     ea6:	c1 93       	st	Z+, r28
     ea8:	10 82       	st	Z, r1
     eaa:	8f 91       	pop	r24
     eac:	9f 91       	pop	r25
     eae:	cf 91       	pop	r28
     eb0:	9c c0       	rjmp	.+312    	; 0xfea <strrev>

00000eb2 <fputc>:
     eb2:	0f 93       	push	r16
     eb4:	1f 93       	push	r17
     eb6:	cf 93       	push	r28
     eb8:	df 93       	push	r29
     eba:	8c 01       	movw	r16, r24
     ebc:	eb 01       	movw	r28, r22
     ebe:	8b 81       	ldd	r24, Y+3	; 0x03
     ec0:	81 ff       	sbrs	r24, 1
     ec2:	1b c0       	rjmp	.+54     	; 0xefa <fputc+0x48>
     ec4:	82 ff       	sbrs	r24, 2
     ec6:	0d c0       	rjmp	.+26     	; 0xee2 <fputc+0x30>
     ec8:	2e 81       	ldd	r18, Y+6	; 0x06
     eca:	3f 81       	ldd	r19, Y+7	; 0x07
     ecc:	8c 81       	ldd	r24, Y+4	; 0x04
     ece:	9d 81       	ldd	r25, Y+5	; 0x05
     ed0:	28 17       	cp	r18, r24
     ed2:	39 07       	cpc	r19, r25
     ed4:	64 f4       	brge	.+24     	; 0xeee <fputc+0x3c>
     ed6:	e8 81       	ld	r30, Y
     ed8:	f9 81       	ldd	r31, Y+1	; 0x01
     eda:	01 93       	st	Z+, r16
     edc:	f9 83       	std	Y+1, r31	; 0x01
     ede:	e8 83       	st	Y, r30
     ee0:	06 c0       	rjmp	.+12     	; 0xeee <fputc+0x3c>
     ee2:	e8 85       	ldd	r30, Y+8	; 0x08
     ee4:	f9 85       	ldd	r31, Y+9	; 0x09
     ee6:	80 2f       	mov	r24, r16
     ee8:	09 95       	icall
     eea:	89 2b       	or	r24, r25
     eec:	31 f4       	brne	.+12     	; 0xefa <fputc+0x48>
     eee:	8e 81       	ldd	r24, Y+6	; 0x06
     ef0:	9f 81       	ldd	r25, Y+7	; 0x07
     ef2:	01 96       	adiw	r24, 0x01	; 1
     ef4:	9f 83       	std	Y+7, r25	; 0x07
     ef6:	8e 83       	std	Y+6, r24	; 0x06
     ef8:	02 c0       	rjmp	.+4      	; 0xefe <fputc+0x4c>
     efa:	0f ef       	ldi	r16, 0xFF	; 255
     efc:	1f ef       	ldi	r17, 0xFF	; 255
     efe:	c8 01       	movw	r24, r16
     f00:	df 91       	pop	r29
     f02:	cf 91       	pop	r28
     f04:	1f 91       	pop	r17
     f06:	0f 91       	pop	r16
     f08:	08 95       	ret

00000f0a <printf>:
     f0a:	a0 e0       	ldi	r26, 0x00	; 0
     f0c:	b0 e0       	ldi	r27, 0x00	; 0
     f0e:	ea e8       	ldi	r30, 0x8A	; 138
     f10:	f7 e0       	ldi	r31, 0x07	; 7
     f12:	8b c0       	rjmp	.+278    	; 0x102a <__prologue_saves__+0x20>
     f14:	fe 01       	movw	r30, r28
     f16:	35 96       	adiw	r30, 0x05	; 5
     f18:	61 91       	ld	r22, Z+
     f1a:	71 91       	ld	r23, Z+
     f1c:	80 91 da 00 	lds	r24, 0x00DA
     f20:	90 91 db 00 	lds	r25, 0x00DB
     f24:	af 01       	movw	r20, r30
     f26:	24 d9       	rcall	.-3512   	; 0x170 <vfprintf>
     f28:	20 96       	adiw	r28, 0x00	; 0
     f2a:	e2 e0       	ldi	r30, 0x02	; 2
     f2c:	9a c0       	rjmp	.+308    	; 0x1062 <__epilogue_restores__+0x20>

00000f2e <__ultoa_invert>:
     f2e:	fa 01       	movw	r30, r20
     f30:	aa 27       	eor	r26, r26
     f32:	28 30       	cpi	r18, 0x08	; 8
     f34:	51 f1       	breq	.+84     	; 0xf8a <__ultoa_invert+0x5c>
     f36:	20 31       	cpi	r18, 0x10	; 16
     f38:	81 f1       	breq	.+96     	; 0xf9a <__ultoa_invert+0x6c>
     f3a:	e8 94       	clt
     f3c:	6f 93       	push	r22
     f3e:	6e 7f       	andi	r22, 0xFE	; 254
     f40:	6e 5f       	subi	r22, 0xFE	; 254
     f42:	7f 4f       	sbci	r23, 0xFF	; 255
     f44:	8f 4f       	sbci	r24, 0xFF	; 255
     f46:	9f 4f       	sbci	r25, 0xFF	; 255
     f48:	af 4f       	sbci	r26, 0xFF	; 255
     f4a:	b1 e0       	ldi	r27, 0x01	; 1
     f4c:	3e d0       	rcall	.+124    	; 0xfca <__ultoa_invert+0x9c>
     f4e:	b4 e0       	ldi	r27, 0x04	; 4
     f50:	3c d0       	rcall	.+120    	; 0xfca <__ultoa_invert+0x9c>
     f52:	67 0f       	add	r22, r23
     f54:	78 1f       	adc	r23, r24
     f56:	89 1f       	adc	r24, r25
     f58:	9a 1f       	adc	r25, r26
     f5a:	a1 1d       	adc	r26, r1
     f5c:	68 0f       	add	r22, r24
     f5e:	79 1f       	adc	r23, r25
     f60:	8a 1f       	adc	r24, r26
     f62:	91 1d       	adc	r25, r1
     f64:	a1 1d       	adc	r26, r1
     f66:	6a 0f       	add	r22, r26
     f68:	71 1d       	adc	r23, r1
     f6a:	81 1d       	adc	r24, r1
     f6c:	91 1d       	adc	r25, r1
     f6e:	a1 1d       	adc	r26, r1
     f70:	20 d0       	rcall	.+64     	; 0xfb2 <__ultoa_invert+0x84>
     f72:	09 f4       	brne	.+2      	; 0xf76 <__ultoa_invert+0x48>
     f74:	68 94       	set
     f76:	3f 91       	pop	r19
     f78:	2a e0       	ldi	r18, 0x0A	; 10
     f7a:	26 9f       	mul	r18, r22
     f7c:	11 24       	eor	r1, r1
     f7e:	30 19       	sub	r19, r0
     f80:	30 5d       	subi	r19, 0xD0	; 208
     f82:	31 93       	st	Z+, r19
     f84:	de f6       	brtc	.-74     	; 0xf3c <__ultoa_invert+0xe>
     f86:	cf 01       	movw	r24, r30
     f88:	08 95       	ret
     f8a:	46 2f       	mov	r20, r22
     f8c:	47 70       	andi	r20, 0x07	; 7
     f8e:	40 5d       	subi	r20, 0xD0	; 208
     f90:	41 93       	st	Z+, r20
     f92:	b3 e0       	ldi	r27, 0x03	; 3
     f94:	0f d0       	rcall	.+30     	; 0xfb4 <__ultoa_invert+0x86>
     f96:	c9 f7       	brne	.-14     	; 0xf8a <__ultoa_invert+0x5c>
     f98:	f6 cf       	rjmp	.-20     	; 0xf86 <__ultoa_invert+0x58>
     f9a:	46 2f       	mov	r20, r22
     f9c:	4f 70       	andi	r20, 0x0F	; 15
     f9e:	40 5d       	subi	r20, 0xD0	; 208
     fa0:	4a 33       	cpi	r20, 0x3A	; 58
     fa2:	18 f0       	brcs	.+6      	; 0xfaa <__ultoa_invert+0x7c>
     fa4:	49 5d       	subi	r20, 0xD9	; 217
     fa6:	31 fd       	sbrc	r19, 1
     fa8:	40 52       	subi	r20, 0x20	; 32
     faa:	41 93       	st	Z+, r20
     fac:	02 d0       	rcall	.+4      	; 0xfb2 <__ultoa_invert+0x84>
     fae:	a9 f7       	brne	.-22     	; 0xf9a <__ultoa_invert+0x6c>
     fb0:	ea cf       	rjmp	.-44     	; 0xf86 <__ultoa_invert+0x58>
     fb2:	b4 e0       	ldi	r27, 0x04	; 4
     fb4:	a6 95       	lsr	r26
     fb6:	97 95       	ror	r25
     fb8:	87 95       	ror	r24
     fba:	77 95       	ror	r23
     fbc:	67 95       	ror	r22
     fbe:	ba 95       	dec	r27
     fc0:	c9 f7       	brne	.-14     	; 0xfb4 <__ultoa_invert+0x86>
     fc2:	00 97       	sbiw	r24, 0x00	; 0
     fc4:	61 05       	cpc	r22, r1
     fc6:	71 05       	cpc	r23, r1
     fc8:	08 95       	ret
     fca:	9b 01       	movw	r18, r22
     fcc:	ac 01       	movw	r20, r24
     fce:	0a 2e       	mov	r0, r26
     fd0:	06 94       	lsr	r0
     fd2:	57 95       	ror	r21
     fd4:	47 95       	ror	r20
     fd6:	37 95       	ror	r19
     fd8:	27 95       	ror	r18
     fda:	ba 95       	dec	r27
     fdc:	c9 f7       	brne	.-14     	; 0xfd0 <__ultoa_invert+0xa2>
     fde:	62 0f       	add	r22, r18
     fe0:	73 1f       	adc	r23, r19
     fe2:	84 1f       	adc	r24, r20
     fe4:	95 1f       	adc	r25, r21
     fe6:	a0 1d       	adc	r26, r0
     fe8:	08 95       	ret

00000fea <strrev>:
     fea:	dc 01       	movw	r26, r24
     fec:	fc 01       	movw	r30, r24
     fee:	67 2f       	mov	r22, r23
     ff0:	71 91       	ld	r23, Z+
     ff2:	77 23       	and	r23, r23
     ff4:	e1 f7       	brne	.-8      	; 0xfee <strrev+0x4>
     ff6:	32 97       	sbiw	r30, 0x02	; 2
     ff8:	04 c0       	rjmp	.+8      	; 0x1002 <strrev+0x18>
     ffa:	7c 91       	ld	r23, X
     ffc:	6d 93       	st	X+, r22
     ffe:	70 83       	st	Z, r23
    1000:	62 91       	ld	r22, -Z
    1002:	ae 17       	cp	r26, r30
    1004:	bf 07       	cpc	r27, r31
    1006:	c8 f3       	brcs	.-14     	; 0xffa <strrev+0x10>
    1008:	08 95       	ret

0000100a <__prologue_saves__>:
    100a:	2f 92       	push	r2
    100c:	3f 92       	push	r3
    100e:	4f 92       	push	r4
    1010:	5f 92       	push	r5
    1012:	6f 92       	push	r6
    1014:	7f 92       	push	r7
    1016:	8f 92       	push	r8
    1018:	9f 92       	push	r9
    101a:	af 92       	push	r10
    101c:	bf 92       	push	r11
    101e:	cf 92       	push	r12
    1020:	df 92       	push	r13
    1022:	ef 92       	push	r14
    1024:	ff 92       	push	r15
    1026:	0f 93       	push	r16
    1028:	1f 93       	push	r17
    102a:	cf 93       	push	r28
    102c:	df 93       	push	r29
    102e:	cd b7       	in	r28, 0x3d	; 61
    1030:	de b7       	in	r29, 0x3e	; 62
    1032:	ca 1b       	sub	r28, r26
    1034:	db 0b       	sbc	r29, r27
    1036:	0f b6       	in	r0, 0x3f	; 63
    1038:	f8 94       	cli
    103a:	de bf       	out	0x3e, r29	; 62
    103c:	0f be       	out	0x3f, r0	; 63
    103e:	cd bf       	out	0x3d, r28	; 61
    1040:	09 94       	ijmp

00001042 <__epilogue_restores__>:
    1042:	2a 88       	ldd	r2, Y+18	; 0x12
    1044:	39 88       	ldd	r3, Y+17	; 0x11
    1046:	48 88       	ldd	r4, Y+16	; 0x10
    1048:	5f 84       	ldd	r5, Y+15	; 0x0f
    104a:	6e 84       	ldd	r6, Y+14	; 0x0e
    104c:	7d 84       	ldd	r7, Y+13	; 0x0d
    104e:	8c 84       	ldd	r8, Y+12	; 0x0c
    1050:	9b 84       	ldd	r9, Y+11	; 0x0b
    1052:	aa 84       	ldd	r10, Y+10	; 0x0a
    1054:	b9 84       	ldd	r11, Y+9	; 0x09
    1056:	c8 84       	ldd	r12, Y+8	; 0x08
    1058:	df 80       	ldd	r13, Y+7	; 0x07
    105a:	ee 80       	ldd	r14, Y+6	; 0x06
    105c:	fd 80       	ldd	r15, Y+5	; 0x05
    105e:	0c 81       	ldd	r16, Y+4	; 0x04
    1060:	1b 81       	ldd	r17, Y+3	; 0x03
    1062:	aa 81       	ldd	r26, Y+2	; 0x02
    1064:	b9 81       	ldd	r27, Y+1	; 0x01
    1066:	ce 0f       	add	r28, r30
    1068:	d1 1d       	adc	r29, r1
    106a:	0f b6       	in	r0, 0x3f	; 63
    106c:	f8 94       	cli
    106e:	de bf       	out	0x3e, r29	; 62
    1070:	0f be       	out	0x3f, r0	; 63
    1072:	cd bf       	out	0x3d, r28	; 61
    1074:	ed 01       	movw	r28, r26
    1076:	08 95       	ret

00001078 <__udivmodsi4>:
    1078:	a1 e2       	ldi	r26, 0x21	; 33
    107a:	1a 2e       	mov	r1, r26
    107c:	aa 1b       	sub	r26, r26
    107e:	bb 1b       	sub	r27, r27
    1080:	fd 01       	movw	r30, r26
    1082:	0d c0       	rjmp	.+26     	; 0x109e <__udivmodsi4_ep>

00001084 <__udivmodsi4_loop>:
    1084:	aa 1f       	adc	r26, r26
    1086:	bb 1f       	adc	r27, r27
    1088:	ee 1f       	adc	r30, r30
    108a:	ff 1f       	adc	r31, r31
    108c:	a2 17       	cp	r26, r18
    108e:	b3 07       	cpc	r27, r19
    1090:	e4 07       	cpc	r30, r20
    1092:	f5 07       	cpc	r31, r21
    1094:	20 f0       	brcs	.+8      	; 0x109e <__udivmodsi4_ep>
    1096:	a2 1b       	sub	r26, r18
    1098:	b3 0b       	sbc	r27, r19
    109a:	e4 0b       	sbc	r30, r20
    109c:	f5 0b       	sbc	r31, r21

0000109e <__udivmodsi4_ep>:
    109e:	66 1f       	adc	r22, r22
    10a0:	77 1f       	adc	r23, r23
    10a2:	88 1f       	adc	r24, r24
    10a4:	99 1f       	adc	r25, r25
    10a6:	1a 94       	dec	r1
    10a8:	69 f7       	brne	.-38     	; 0x1084 <__udivmodsi4_loop>
    10aa:	60 95       	com	r22
    10ac:	70 95       	com	r23
    10ae:	80 95       	com	r24
    10b0:	90 95       	com	r25
    10b2:	9b 01       	movw	r18, r22
    10b4:	ac 01       	movw	r20, r24
    10b6:	bd 01       	movw	r22, r26
    10b8:	cf 01       	movw	r24, r30
    10ba:	08 95       	ret

000010bc <_exit>:
    10bc:	f8 94       	cli

000010be <__stop_program>:
    10be:	ff cf       	rjmp	.-2      	; 0x10be <__stop_program>

Disassembly of section .data:

00800060 <__data_start>:
  800060:	0a 44       	sbci	r16, 0x4A	; 74
  800062:	45 42       	sbci	r20, 0x25	; 37
  800064:	55 47       	sbci	r21, 0x75	; 117
  800066:	20 56       	subi	r18, 0x60	; 96
  800068:	45 52       	subi	r20, 0x25	; 37
  80006a:	53 49       	sbci	r21, 0x93	; 147
  80006c:	4f 4e       	sbci	r20, 0xEF	; 239
  80006e:	20 25       	eor	r18, r0
  800070:	69 00       	.word	0x0069	; ????
  800072:	69 3d       	cpi	r22, 0xD9	; 217
  800074:	20 25       	eor	r18, r0
  800076:	69 20       	and	r6, r9
  800078:	20 20       	and	r2, r0
  80007a:	0a 00       	.word	0x000a	; ????
  80007c:	48 43       	sbci	r20, 0x38	; 56
  80007e:	31 36       	cpi	r19, 0x61	; 97
  800080:	31 3d       	cpi	r19, 0xD1	; 209
  800082:	20 25       	eor	r18, r0
  800084:	69 20       	and	r6, r9
  800086:	20 20       	and	r2, r0
  800088:	00 44       	sbci	r16, 0x40	; 64
  80008a:	45 42       	sbci	r20, 0x25	; 37
  80008c:	55 47       	sbci	r21, 0x75	; 117
  80008e:	20 56       	subi	r18, 0x60	; 96
  800090:	45 52       	subi	r20, 0x25	; 37
  800092:	53 49       	sbci	r21, 0x93	; 147
  800094:	4f 4e       	sbci	r20, 0xEF	; 239
  800096:	20 25       	eor	r18, r0
  800098:	69 0a       	sbc	r6, r25
	...

0080009b <lcd_stdout>:
  80009b:	00 00       	nop
  80009d:	00 02       	muls	r16, r16
  80009f:	00 00       	nop
  8000a1:	00 00       	nop
  8000a3:	b0 04       	cpc	r11, r0
  8000a5:	00 00       	nop
  8000a7:	00 00       	nop
	...

Disassembly of section .bss:

008000aa <Counter>:
  8000aa:	00 00       	nop
	...

008000ae <cBuffer.1751>:
	...

008000cf <freq>:
  8000cf:	00 00       	nop
	...

008000d3 <temp>:
  8000d3:	00 00       	nop
	...

008000d7 <Event>:
	...

008000d8 <__iob>:
  8000d8:	00 00       	nop
  8000da:	00 00       	nop
	...

Disassembly of section .debug_aranges:

00000000 <_end-0x8000de>:
   0:	1c 00       	.word	0x001c	; ????
   2:	00 00       	nop
   4:	02 00       	.word	0x0002	; ????
   6:	00 00       	nop
   8:	00 00       	nop
   a:	04 00       	.word	0x0004	; ????
   c:	00 00       	nop
   e:	00 00       	nop
  10:	44 08       	sbc	r4, r4
  12:	00 00       	nop
  14:	2e 04       	cpc	r2, r14
	...

Disassembly of section .debug_pubnames:

00000000 <.debug_pubnames>:
   0:	03 01       	movw	r0, r6
   2:	00 00       	nop
   4:	02 00       	.word	0x0002	; ????
   6:	00 00       	nop
   8:	00 00       	nop
   a:	10 0b       	sbc	r17, r16
   c:	00 00       	nop
   e:	9e 02       	muls	r25, r30
  10:	00 00       	nop
  12:	4c 43       	sbci	r20, 0x3C	; 60
  14:	44 34       	cpi	r20, 0x44	; 68
  16:	5f 53       	subi	r21, 0x3F	; 63
  18:	65 6e       	ori	r22, 0xE5	; 229
  1a:	64 00       	.word	0x0064	; ????
  1c:	b9 03       	fmulsu	r19, r17
  1e:	00 00       	nop
  20:	4c 43       	sbci	r20, 0x3C	; 60
  22:	44 5f       	subi	r20, 0xF4	; 244
  24:	70 67       	ori	r23, 0x70	; 112
  26:	6d 5f       	subi	r22, 0xFD	; 253
  28:	74 65       	ori	r23, 0x54	; 84
  2a:	78 74       	andi	r23, 0x48	; 72
  2c:	00 40       	sbci	r16, 0x00	; 0
  2e:	04 00       	.word	0x0004	; ????
  30:	00 4c       	sbci	r16, 0xC0	; 192
  32:	43 44       	sbci	r20, 0x43	; 67
  34:	5f 58       	subi	r21, 0x8F	; 143
  36:	59 00       	.word	0x0059	; ????
  38:	73 04       	cpc	r7, r3
  3a:	00 00       	nop
  3c:	4c 43       	sbci	r20, 0x3C	; 60
  3e:	44 5f       	subi	r20, 0xF4	; 244
  40:	4e 65       	ori	r20, 0x5E	; 94
  42:	77 00       	.word	0x0077	; ????
  44:	be 04       	cpc	r11, r14
  46:	00 00       	nop
  48:	72 65       	ori	r23, 0x52	; 82
  4a:	73 65       	ori	r23, 0x53	; 83
  4c:	74 48       	sbci	r23, 0x84	; 132
  4e:	43 31       	cpi	r20, 0x13	; 19
  50:	36 31       	cpi	r19, 0x16	; 22
  52:	00 43       	sbci	r16, 0x30	; 48
  54:	05 00       	.word	0x0005	; ????
  56:	00 70       	andi	r16, 0x00	; 0
  58:	75 6c       	ori	r23, 0xC5	; 197
  5a:	73 65       	ori	r23, 0x53	; 83
  5c:	48 43       	sbci	r20, 0x38	; 56
  5e:	31 36       	cpi	r19, 0x61	; 97
  60:	31 00       	.word	0x0031	; ????
  62:	d8 05       	cpc	r29, r8
  64:	00 00       	nop
  66:	72 65       	ori	r23, 0x52	; 82
  68:	61 64       	ori	r22, 0x41	; 65
  6a:	48 43       	sbci	r20, 0x38	; 56
  6c:	31 36       	cpi	r19, 0x61	; 97
  6e:	31 00       	.word	0x0031	; ????
  70:	04 06       	cpc	r0, r20
  72:	00 00       	nop
  74:	5f 5f       	subi	r21, 0xFF	; 255
  76:	76 65       	ori	r23, 0x56	; 86
  78:	63 74       	andi	r22, 0x43	; 67
  7a:	6f 72       	andi	r22, 0x2F	; 47
  7c:	5f 39       	cpi	r21, 0x9F	; 159
  7e:	00 18       	sub	r0, r0
  80:	06 00       	.word	0x0006	; ????
  82:	00 5f       	subi	r16, 0xF0	; 240
  84:	5f 76       	andi	r21, 0x6F	; 111
  86:	65 63       	ori	r22, 0x35	; 53
  88:	74 6f       	ori	r23, 0xF4	; 244
  8a:	72 5f       	subi	r23, 0xF2	; 242
  8c:	31 00       	.word	0x0031	; ????
  8e:	2c 06       	cpc	r2, r28
  90:	00 00       	nop
  92:	5f 5f       	subi	r21, 0xFF	; 255
  94:	76 65       	ori	r23, 0x56	; 86
  96:	63 74       	andi	r22, 0x43	; 67
  98:	6f 72       	andi	r22, 0x2F	; 47
  9a:	5f 32       	cpi	r21, 0x2F	; 47
  9c:	00 40       	sbci	r16, 0x00	; 0
  9e:	06 00       	.word	0x0006	; ????
  a0:	00 6d       	ori	r16, 0xD0	; 208
  a2:	61 69       	ori	r22, 0x91	; 145
  a4:	6e 00       	.word	0x006e	; ????
  a6:	87 09       	sbc	r24, r7
  a8:	00 00       	nop
  aa:	73 74       	andi	r23, 0x43	; 67
  ac:	61 72       	andi	r22, 0x21	; 33
  ae:	74 44       	sbci	r23, 0x44	; 68
  b0:	65 62       	ori	r22, 0x25	; 37
  b2:	75 67       	ori	r23, 0x75	; 117
  b4:	00 ec       	ldi	r16, 0xC0	; 192
  b6:	09 00       	.word	0x0009	; ????
  b8:	00 4c       	sbci	r16, 0xC0	; 192
  ba:	43 44       	sbci	r20, 0x43	; 67
  bc:	5f 49       	sbci	r21, 0x9F	; 159
  be:	6e 74       	andi	r22, 0x4E	; 78
  c0:	00 7f       	andi	r16, 0xF0	; 240
  c2:	0a 00       	.word	0x000a	; ????
  c4:	00 68       	ori	r16, 0x80	; 128
  c6:	65 6c       	ori	r22, 0xC5	; 197
  c8:	6c 6f       	ori	r22, 0xFC	; 252
  ca:	5f 6d       	ori	r21, 0xDF	; 223
  cc:	73 67       	ori	r23, 0x73	; 115
  ce:	00 a6       	std	Z+40, r0	; 0x28
  d0:	0a 00       	.word	0x000a	; ????
  d2:	00 62       	ori	r16, 0x20	; 32
  d4:	75 79       	andi	r23, 0x95	; 149
  d6:	5f 6d       	ori	r21, 0xDF	; 223
  d8:	73 67       	ori	r23, 0x73	; 115
  da:	00 bd       	out	0x20, r16	; 32
  dc:	0a 00       	.word	0x000a	; ????
  de:	00 45       	sbci	r16, 0x50	; 80
  e0:	76 65       	ori	r23, 0x56	; 86
  e2:	6e 74       	andi	r22, 0x4E	; 78
  e4:	00 d4       	rcall	.+2048   	; 0x8e6 <LCD_New+0x18>
  e6:	0a 00       	.word	0x000a	; ????
  e8:	00 43       	sbci	r16, 0x30	; 48
  ea:	6f 75       	andi	r22, 0x5F	; 95
  ec:	6e 74       	andi	r22, 0x4E	; 78
  ee:	65 72       	andi	r22, 0x25	; 37
  f0:	00 eb       	ldi	r16, 0xB0	; 176
  f2:	0a 00       	.word	0x000a	; ????
  f4:	00 74       	andi	r16, 0x40	; 64
  f6:	65 6d       	ori	r22, 0xD5	; 213
  f8:	70 00       	.word	0x0070	; ????
  fa:	fd 0a       	sbc	r15, r29
  fc:	00 00       	nop
  fe:	66 72       	andi	r22, 0x26	; 38
 100:	65 71       	andi	r22, 0x15	; 21
 102:	00 00       	nop
 104:	00 00       	nop
	...

Disassembly of section .debug_info:

00000000 <.debug_info>:
   0:	0c 0b       	sbc	r16, r28
   2:	00 00       	nop
   4:	02 00       	.word	0x0002	; ????
   6:	00 00       	nop
   8:	00 00       	nop
   a:	04 01       	movw	r0, r8
   c:	00 00       	nop
   e:	00 00       	nop
  10:	01 fb       	bst	r16, 1
  12:	00 00       	nop
  14:	00 ac       	ldd	r0, Z+56	; 0x38
  16:	00 00       	nop
  18:	00 44       	sbci	r16, 0x40	; 64
  1a:	08 00       	.word	0x0008	; ????
  1c:	00 72       	andi	r16, 0x20	; 32
  1e:	0c 00       	.word	0x000c	; ????
  20:	00 00       	nop
  22:	00 00       	nop
  24:	00 02       	muls	r16, r16
  26:	01 06       	cpc	r0, r17
  28:	e8 00       	.word	0x00e8	; ????
  2a:	00 00       	nop
  2c:	03 5b       	subi	r16, 0xB3	; 179
  2e:	00 00       	nop
  30:	00 06       	cpc	r0, r16
  32:	7a 37       	cpi	r23, 0x7A	; 122
  34:	00 00       	nop
  36:	00 02       	muls	r16, r16
  38:	01 08       	sbc	r0, r1
  3a:	e6 00       	.word	0x00e6	; ????
  3c:	00 00       	nop
  3e:	04 02       	muls	r16, r20
  40:	05 69       	ori	r16, 0x95	; 149
  42:	6e 74       	andi	r22, 0x4E	; 78
  44:	00 03       	mulsu	r16, r16
  46:	2b 01       	movw	r4, r22
  48:	00 00       	nop
  4a:	06 7c       	andi	r16, 0xC6	; 198
  4c:	50 00       	.word	0x0050	; ????
  4e:	00 00       	nop
  50:	02 02       	muls	r16, r18
  52:	07 15       	cp	r16, r7
  54:	01 00       	.word	0x0001	; ????
  56:	00 02       	muls	r16, r16
  58:	04 05       	cpc	r16, r4
  5a:	99 00       	.word	0x0099	; ????
  5c:	00 00       	nop
  5e:	03 22       	and	r0, r19
  60:	01 00       	.word	0x0001	; ????
  62:	00 06       	cpc	r0, r16
  64:	7e 69       	ori	r23, 0x9E	; 158
  66:	00 00       	nop
  68:	00 02       	muls	r16, r16
  6a:	04 07       	cpc	r16, r20
  6c:	10 01       	movw	r2, r0
  6e:	00 00       	nop
  70:	02 08       	sbc	r0, r2
  72:	05 94       	asr	r0
  74:	00 00       	nop
  76:	00 02       	muls	r16, r16
  78:	08 07       	cpc	r16, r24
  7a:	0b 01       	movw	r0, r22
  7c:	00 00       	nop
  7e:	05 f4       	brhc	.+0      	; 0x80 <__SREG__+0x41>
  80:	00 00       	nop
  82:	00 0e       	add	r0, r16
  84:	07 f2       	brie	.-128    	; 0x6 <__zero_reg__+0x5>
  86:	00 01       	movw	r0, r0
  88:	00 00       	nop
  8a:	06 62       	ori	r16, 0x26	; 38
  8c:	75 66       	ori	r23, 0x65	; 101
  8e:	00 07       	cpc	r16, r16
  90:	f3 00       	.word	0x00f3	; ????
  92:	01 00       	.word	0x0001	; ????
  94:	00 02       	muls	r16, r16
  96:	23 00       	.word	0x0023	; ????
  98:	07 44       	sbci	r16, 0x47	; 71
  9a:	01 00       	.word	0x0001	; ????
  9c:	00 07       	cpc	r16, r16
  9e:	f4 37       	cpi	r31, 0x74	; 116
  a0:	00 00       	nop
  a2:	00 02       	muls	r16, r16
  a4:	23 02       	muls	r18, r19
  a6:	07 05       	cpc	r16, r7
  a8:	01 00       	.word	0x0001	; ????
  aa:	00 07       	cpc	r16, r16
  ac:	f5 2c       	mov	r15, r5
  ae:	00 00       	nop
  b0:	00 02       	muls	r16, r16
  b2:	23 03       	mulsu	r18, r19
  b4:	08 91       	.word	0x9108	; ????
  b6:	01 00       	.word	0x0001	; ????
  b8:	00 07       	cpc	r16, r16
  ba:	05 01       	movw	r0, r10
  bc:	3e 00       	.word	0x003e	; ????
  be:	00 00       	nop
  c0:	02 23       	and	r16, r18
  c2:	04 09       	sbc	r16, r4
  c4:	6c 65       	ori	r22, 0x5C	; 92
  c6:	6e 00       	.word	0x006e	; ????
  c8:	07 06       	cpc	r0, r23
  ca:	01 3e       	cpi	r16, 0xE1	; 225
  cc:	00 00       	nop
  ce:	00 02       	muls	r16, r16
  d0:	23 06       	cpc	r2, r19
  d2:	09 70       	andi	r16, 0x09	; 9
  d4:	75 74       	andi	r23, 0x45	; 69
  d6:	00 07       	cpc	r16, r16
  d8:	07 01       	movw	r0, r14
  da:	28 01       	movw	r4, r16
  dc:	00 00       	nop
  de:	02 23       	and	r16, r18
  e0:	08 09       	sbc	r16, r8
  e2:	67 65       	ori	r22, 0x57	; 87
  e4:	74 00       	.word	0x0074	; ????
  e6:	07 08       	sbc	r0, r7
  e8:	01 3e       	cpi	r16, 0xE1	; 225
  ea:	01 00       	.word	0x0001	; ????
  ec:	00 02       	muls	r16, r16
  ee:	23 0a       	sbc	r2, r19
  f0:	08 52       	subi	r16, 0x28	; 40
  f2:	01 00       	.word	0x0001	; ????
  f4:	00 07       	cpc	r16, r16
  f6:	09 01       	movw	r0, r18
  f8:	44 01       	movw	r8, r8
  fa:	00 00       	nop
  fc:	02 23       	and	r16, r18
  fe:	0c 00       	.word	0x000c	; ????
 100:	0a 02       	muls	r16, r26
 102:	06 01       	movw	r0, r12
 104:	00 00       	nop
 106:	02 01       	movw	r0, r4
 108:	08 ef       	ldi	r16, 0xF8	; 248
 10a:	00 00       	nop
 10c:	00 0b       	sbc	r16, r16
 10e:	01 3e       	cpi	r16, 0xE1	; 225
 110:	00 00       	nop
 112:	00 22       	and	r0, r16
 114:	01 00       	.word	0x0001	; ????
 116:	00 0c       	add	r0, r0
 118:	06 01       	movw	r0, r12
 11a:	00 00       	nop
 11c:	0c 22       	and	r0, r28
 11e:	01 00       	.word	0x0001	; ????
 120:	00 00       	nop
 122:	0a 02       	muls	r16, r26
 124:	7e 00       	.word	0x007e	; ????
 126:	00 00       	nop
 128:	0a 02       	muls	r16, r26
 12a:	0d 01       	movw	r0, r26
 12c:	00 00       	nop
 12e:	0b 01       	movw	r0, r22
 130:	3e 00       	.word	0x003e	; ????
 132:	00 00       	nop
 134:	3e 01       	movw	r6, r28
 136:	00 00       	nop
 138:	0c 22       	and	r0, r28
 13a:	01 00       	.word	0x0001	; ????
 13c:	00 00       	nop
 13e:	0a 02       	muls	r16, r26
 140:	2e 01       	movw	r4, r28
 142:	00 00       	nop
 144:	0d 02       	muls	r16, r29
 146:	0e 01       	movw	r0, r28
 148:	08 0f       	add	r16, r24
 14a:	47 00       	.word	0x0047	; ????
 14c:	00 00       	nop
 14e:	02 68       	ori	r16, 0x82	; 130
 150:	01 03       	mulsu	r16, r17
 152:	62 01       	movw	r12, r4
 154:	00 00       	nop
 156:	10 31       	cpi	r17, 0x10	; 16
 158:	00 00       	nop
 15a:	00 02       	muls	r16, r16
 15c:	67 45       	sbci	r22, 0x57	; 87
 15e:	00 00       	nop
 160:	00 00       	nop
 162:	0f a2       	std	Y+39, r0	; 0x27
 164:	00 00       	nop
 166:	00 05       	cpc	r16, r0
 168:	6f 01       	movw	r12, r30
 16a:	03 93       	.word	0x9303	; ????
 16c:	01 00       	.word	0x0001	; ????
 16e:	00 10       	cpse	r0, r0
 170:	b4 01       	movw	r22, r8
 172:	00 00       	nop
 174:	05 6e       	ori	r16, 0xE5	; 229
 176:	93 01       	movw	r18, r6
 178:	00 00       	nop
 17a:	11 b9       	out	0x01, r17	; 1
 17c:	01 00       	.word	0x0001	; ????
 17e:	00 05       	cpc	r16, r0
 180:	70 45       	sbci	r23, 0x50	; 80
 182:	00 00       	nop
 184:	00 11       	cpse	r16, r0
 186:	16 00       	.word	0x0016	; ????
 188:	00 00       	nop
 18a:	05 71       	andi	r16, 0x15	; 21
 18c:	93 01       	movw	r18, r6
 18e:	00 00       	nop
 190:	12 12       	cpse	r1, r18
 192:	00 02       	muls	r16, r16
 194:	04 04       	cpc	r0, r4
 196:	74 01       	movw	r14, r8
 198:	00 00       	nop
 19a:	0f 39       	cpi	r16, 0x9F	; 159
 19c:	00 00       	nop
 19e:	00 02       	muls	r16, r16
 1a0:	52 01       	movw	r10, r4
 1a2:	03 b3       	in	r16, 0x13	; 19
 1a4:	01 00       	.word	0x0001	; ????
 1a6:	00 10       	cpse	r0, r0
 1a8:	31 00       	.word	0x0031	; ????
 1aa:	00 00       	nop
 1ac:	02 51       	subi	r16, 0x12	; 18
 1ae:	2c 00       	.word	0x002c	; ????
 1b0:	00 00       	nop
 1b2:	00 0f       	add	r16, r16
 1b4:	c1 01       	movw	r24, r2
 1b6:	00 00       	nop
 1b8:	05 95       	asr	r16
 1ba:	01 03       	mulsu	r16, r17
 1bc:	fc 01       	movw	r30, r24
 1be:	00 00       	nop
 1c0:	10 f5       	brcc	.+68     	; 0x206 <vfprintf+0x96>
 1c2:	01 00       	.word	0x0001	; ????
 1c4:	00 05       	cpc	r16, r0
 1c6:	94 93       	.word	0x9394	; ????
 1c8:	01 00       	.word	0x0001	; ????
 1ca:	00 11       	cpse	r16, r0
 1cc:	b9 01       	movw	r22, r18
 1ce:	00 00       	nop
 1d0:	05 96       	adiw	r24, 0x05	; 5
 1d2:	2c 00       	.word	0x002c	; ????
 1d4:	00 00       	nop
 1d6:	11 16       	cp	r1, r17
 1d8:	00 00       	nop
 1da:	00 05       	cpc	r16, r0
 1dc:	97 93       	.word	0x9397	; ????
 1de:	01 00       	.word	0x0001	; ????
 1e0:	00 13       	cpse	r16, r16
 1e2:	fa 01       	movw	r30, r20
 1e4:	00 00       	nop
 1e6:	14 6f       	ori	r17, 0xF4	; 244
 1e8:	01 00       	.word	0x0001	; ????
 1ea:	00 15       	cp	r16, r0
 1ec:	16 7a       	andi	r17, 0xA6	; 166
 1ee:	01 00       	.word	0x0001	; ????
 1f0:	00 16       	cp	r0, r16
 1f2:	85 01       	movw	r16, r10
 1f4:	00 00       	nop
 1f6:	12 12       	cpse	r1, r18
 1f8:	00 00       	nop
 1fa:	12 00       	.word	0x0012	; ????
 1fc:	17 58       	subi	r17, 0x87	; 135
 1fe:	01 00       	.word	0x0001	; ????
 200:	00 01       	movw	r0, r0
 202:	30 03       	mulsu	r19, r16
 204:	4a 02       	muls	r20, r26
 206:	00 00       	nop
 208:	13 21       	and	r17, r3
 20a:	02 00       	.word	0x0002	; ????
 20c:	00 14       	cp	r0, r0
 20e:	6f 01       	movw	r12, r30
 210:	00 00       	nop
 212:	15 16       	cp	r1, r21
 214:	7a 01       	movw	r14, r20
 216:	00 00       	nop
 218:	16 85       	ldd	r17, Z+14	; 0x0e
 21a:	01 00       	.word	0x0001	; ????
 21c:	00 12       	cpse	r0, r16
 21e:	12 00       	.word	0x0012	; ????
 220:	00 13       	cpse	r16, r16
 222:	34 02       	muls	r19, r20
 224:	00 00       	nop
 226:	15 13       	cpse	r17, r21
 228:	31 02       	muls	r19, r17
 22a:	00 00       	nop
 22c:	15 12       	cpse	r1, r21
 22e:	12 00       	.word	0x0012	; ????
 230:	00 12       	cpse	r0, r16
 232:	00 00       	nop
 234:	15 14       	cp	r1, r5
 236:	6f 01       	movw	r12, r30
 238:	00 00       	nop
 23a:	15 16       	cp	r1, r21
 23c:	7a 01       	movw	r14, r20
 23e:	00 00       	nop
 240:	16 85       	ldd	r17, Z+14	; 0x0e
 242:	01 00       	.word	0x0001	; ????
 244:	00 12       	cpse	r0, r16
 246:	12 00       	.word	0x0012	; ????
 248:	00 00       	nop
 24a:	18 01       	movw	r2, r16
 24c:	69 01       	movw	r12, r18
 24e:	00 00       	nop
 250:	03 02       	muls	r16, r19
 252:	01 01       	movw	r0, r2
 254:	69 02       	muls	r22, r25
 256:	00 00       	nop
 258:	13 62       	ori	r17, 0x23	; 35
 25a:	02 00       	.word	0x0002	; ????
 25c:	00 15       	cp	r16, r0
 25e:	12 12       	cpse	r1, r18
 260:	00 00       	nop
 262:	15 15       	cp	r17, r5
 264:	12 12       	cpse	r1, r18
 266:	00 00       	nop
 268:	00 18       	sub	r0, r0
 26a:	01 7b       	andi	r16, 0xB1	; 177
 26c:	01 00       	.word	0x0001	; ????
 26e:	00 03       	mulsu	r16, r16
 270:	12 01       	movw	r2, r4
 272:	01 9e       	mul	r0, r17
 274:	02 00       	.word	0x0002	; ????
 276:	00 19       	sub	r16, r0
 278:	63 6e       	ori	r22, 0xE3	; 227
 27a:	74 00       	.word	0x0074	; ????
 27c:	03 11       	cpse	r16, r3
 27e:	45 00       	.word	0x0045	; ????
 280:	00 00       	nop
 282:	15 1a       	sub	r1, r21
 284:	69 00       	.word	0x0069	; ????
 286:	03 13       	cpse	r16, r19
 288:	45 00       	.word	0x0045	; ????
 28a:	00 00       	nop
 28c:	13 96       	adiw	r26, 0x03	; 3
 28e:	02 00       	.word	0x0002	; ????
 290:	00 15       	cp	r16, r0
 292:	12 12       	cpse	r1, r18
 294:	00 00       	nop
 296:	15 15       	cp	r17, r5
 298:	12 12       	cpse	r1, r18
 29a:	00 00       	nop
 29c:	00 00       	nop
 29e:	1b 01       	movw	r2, r22
 2a0:	96 01       	movw	r18, r12
 2a2:	00 00       	nop
 2a4:	01 14       	cp	r0, r1
 2a6:	01 44       	sbci	r16, 0x41	; 65
 2a8:	08 00       	.word	0x0008	; ????
 2aa:	00 92 08 00 	sts	0x0008, r0
 2ae:	00 02       	muls	r16, r16
 2b0:	90 20       	and	r9, r0
 2b2:	b9 03       	fmulsu	r19, r17
 2b4:	00 00       	nop
 2b6:	1c 53       	subi	r17, 0x3C	; 60
 2b8:	01 00       	.word	0x0001	; ????
 2ba:	00 01       	movw	r0, r0
 2bc:	13 2c       	mov	r1, r3
 2be:	00 00       	nop
 2c0:	00 00       	nop
 2c2:	00 00       	nop
 2c4:	00 1d       	adc	r16, r0
 2c6:	cb 01       	movw	r24, r22
 2c8:	00 00       	nop
 2ca:	01 13       	cpse	r16, r17
 2cc:	2c 00       	.word	0x002c	; ????
 2ce:	00 00       	nop
 2d0:	01 66       	ori	r16, 0x61	; 97
 2d2:	1e 11       	cpse	r17, r14
 2d4:	00 00       	nop
 2d6:	00 01       	movw	r0, r0
 2d8:	15 2c       	mov	r1, r5
 2da:	00 00       	nop
 2dc:	00 1e       	adc	r0, r16
 2de:	00 00       	nop
 2e0:	00 1f       	adc	r16, r16
 2e2:	62 01       	movw	r12, r4
 2e4:	00 00       	nop
 2e6:	46 08       	sbc	r4, r6
 2e8:	00 00       	nop
 2ea:	4e 08       	sbc	r4, r14
 2ec:	00 00       	nop
 2ee:	01 18       	sub	r0, r1
 2f0:	18 03       	fmul	r17, r16
 2f2:	00 00       	nop
 2f4:	20 46       	sbci	r18, 0x60	; 96
 2f6:	08 00       	.word	0x0008	; ????
 2f8:	00 4e       	sbci	r16, 0xE0	; 224
 2fa:	08 00       	.word	0x0008	; ????
 2fc:	00 21       	and	r16, r0
 2fe:	49 01       	movw	r8, r18
 300:	00 00       	nop
 302:	46 08       	sbc	r4, r6
 304:	00 00       	nop
 306:	4e 08       	sbc	r4, r14
 308:	00 00       	nop
 30a:	05 82       	std	Z+5, r0	; 0x05
 30c:	22 56       	subi	r18, 0x62	; 98
 30e:	01 00       	.word	0x0001	; ????
 310:	00 5d       	subi	r16, 0xD0	; 208
 312:	00 00       	nop
 314:	00 00       	nop
 316:	00 00       	nop
 318:	1f b3       	in	r17, 0x1f	; 31
 31a:	01 00       	.word	0x0001	; ????
 31c:	00 66       	ori	r16, 0x60	; 96
 31e:	08 00       	.word	0x0008	; ????
 320:	00 6c       	ori	r16, 0xC0	; 192
 322:	08 00       	.word	0x0008	; ????
 324:	00 01       	movw	r0, r0
 326:	1f 4d       	sbci	r17, 0xDF	; 223
 328:	03 00       	.word	0x0003	; ????
 32a:	00 20       	and	r0, r0
 32c:	66 08       	sbc	r6, r6
 32e:	00 00       	nop
 330:	6c 08       	sbc	r6, r12
 332:	00 00       	nop
 334:	21 9a       	sbi	0x04, 1	; 4
 336:	01 00       	.word	0x0001	; ????
 338:	00 66       	ori	r16, 0x60	; 96
 33a:	08 00       	.word	0x0008	; ????
 33c:	00 6c       	ori	r16, 0xC0	; 192
 33e:	08 00       	.word	0x0008	; ????
 340:	00 05       	cpc	r16, r0
 342:	a1 23       	and	r26, r17
 344:	a7 01       	movw	r20, r14
 346:	00 00       	nop
 348:	01 69       	ori	r16, 0x91	; 145
 34a:	00 00       	nop
 34c:	00 1f       	adc	r16, r16
 34e:	62 01       	movw	r12, r4
 350:	00 00       	nop
 352:	6e 08       	sbc	r6, r14
 354:	00 00       	nop
 356:	76 08       	sbc	r7, r6
 358:	00 00       	nop
 35a:	01 23       	and	r16, r17
 35c:	87 03       	fmuls	r16, r23
 35e:	00 00       	nop
 360:	20 6e       	ori	r18, 0xE0	; 224
 362:	08 00       	.word	0x0008	; ????
 364:	00 76       	andi	r16, 0x60	; 96
 366:	08 00       	.word	0x0008	; ????
 368:	00 21       	and	r16, r0
 36a:	49 01       	movw	r8, r18
 36c:	00 00       	nop
 36e:	6e 08       	sbc	r6, r14
 370:	00 00       	nop
 372:	76 08       	sbc	r7, r6
 374:	00 00       	nop
 376:	05 82       	std	Z+5, r0	; 0x05
 378:	23 56       	subi	r18, 0x63	; 99
 37a:	01 00       	.word	0x0001	; ????
 37c:	00 06       	cpc	r0, r16
 37e:	6e 93       	st	-X, r22
 380:	01 6f       	ori	r16, 0xF1	; 241
 382:	93 01       	movw	r18, r6
 384:	00 00       	nop
 386:	00 21       	and	r16, r0
 388:	b3 01       	movw	r22, r6
 38a:	00 00       	nop
 38c:	88 08       	sbc	r8, r8
 38e:	00 00       	nop
 390:	8e 08       	sbc	r8, r14
 392:	00 00       	nop
 394:	01 2a       	or	r0, r17
 396:	20 88       	ldd	r2, Z+16	; 0x10
 398:	08 00       	.word	0x0008	; ????
 39a:	00 8e       	std	Z+24, r0	; 0x18
 39c:	08 00       	.word	0x0008	; ????
 39e:	00 21       	and	r16, r0
 3a0:	9a 01       	movw	r18, r20
 3a2:	00 00       	nop
 3a4:	88 08       	sbc	r8, r8
 3a6:	00 00       	nop
 3a8:	8e 08       	sbc	r8, r14
 3aa:	00 00       	nop
 3ac:	05 a1       	ldd	r16, Z+37	; 0x25
 3ae:	23 a7       	std	Z+43, r18	; 0x2b
 3b0:	01 00       	.word	0x0001	; ????
 3b2:	00 01       	movw	r0, r0
 3b4:	68 00       	.word	0x0068	; ????
 3b6:	00 00       	nop
 3b8:	00 1b       	sub	r16, r16
 3ba:	01 e8       	ldi	r16, 0x81	; 129
 3bc:	01 00       	.word	0x0001	; ????
 3be:	00 01       	movw	r0, r0
 3c0:	45 01       	movw	r8, r10
 3c2:	92 08       	sbc	r9, r2
 3c4:	00 00       	nop
 3c6:	b8 08       	sbc	r11, r8
 3c8:	00 00       	nop
 3ca:	02 90       	ld	r0, -Z
 3cc:	20 3a       	cpi	r18, 0xA0	; 160
 3ce:	04 00       	.word	0x0004	; ????
 3d0:	00 1c       	adc	r0, r0
 3d2:	ac 01       	movw	r20, r24
 3d4:	00 00       	nop
 3d6:	01 44       	sbci	r16, 0x41	; 65
 3d8:	3a 04       	cpc	r3, r10
 3da:	00 00       	nop
 3dc:	75 00       	.word	0x0075	; ????
 3de:	00 00       	nop
 3e0:	24 69       	ori	r18, 0x94	; 148
 3e2:	00 01       	movw	r0, r0
 3e4:	46 2c       	mov	r4, r6
 3e6:	00 00       	nop
 3e8:	00 9d       	mul	r16, r0
 3ea:	00 00       	nop
 3ec:	00 25       	eor	r16, r0
 3ee:	9e 08       	sbc	r9, r14
 3f0:	00 00       	nop
 3f2:	a0 08       	sbc	r10, r0
 3f4:	00 00       	nop
 3f6:	11 04       	cpc	r1, r1
 3f8:	00 00       	nop
 3fa:	11 6a       	ori	r17, 0xA1	; 161
 3fc:	00 00       	nop
 3fe:	00 01       	movw	r0, r0
 400:	48 45       	sbci	r20, 0x58	; 88
 402:	00 00       	nop
 404:	00 11       	cpse	r16, r0
 406:	34 01       	movw	r6, r8
 408:	00 00       	nop
 40a:	01 48       	sbci	r16, 0x81	; 129
 40c:	2c 00       	.word	0x002c	; ????
 40e:	00 00       	nop
 410:	00 20       	and	r0, r0
 412:	a4 08       	sbc	r10, r4
 414:	00 00       	nop
 416:	ac 08       	sbc	r10, r12
 418:	00 00       	nop
 41a:	1e 6a       	ori	r17, 0xAE	; 174
 41c:	00 00       	nop
 41e:	00 01       	movw	r0, r0
 420:	47 45       	sbci	r20, 0x57	; 87
 422:	00 00       	nop
 424:	00 b0       	in	r0, 0x00	; 0
 426:	00 00       	nop
 428:	00 1e       	adc	r0, r16
 42a:	34 01       	movw	r6, r8
 42c:	00 00       	nop
 42e:	01 47       	sbci	r16, 0x71	; 113
 430:	2c 00       	.word	0x002c	; ????
 432:	00 00       	nop
 434:	d8 00       	.word	0x00d8	; ????
 436:	00 00       	nop
 438:	00 00       	nop
 43a:	0a 02       	muls	r16, r26
 43c:	2c 00       	.word	0x002c	; ????
 43e:	00 00       	nop
 440:	1b 01       	movw	r2, r22
 442:	63 00       	.word	0x0063	; ????
 444:	00 00       	nop
 446:	01 57       	subi	r16, 0x71	; 113
 448:	01 b8       	out	0x01, r0	; 1
 44a:	08 00       	.word	0x0008	; ????
 44c:	00 ce       	rjmp	.-1024   	; 0x4e <__SREG__+0xf>
 44e:	08 00       	.word	0x0008	; ????
 450:	00 02       	muls	r16, r16
 452:	90 20       	and	r9, r0
 454:	73 04       	cpc	r7, r3
 456:	00 00       	nop
 458:	26 78       	andi	r18, 0x86	; 134
 45a:	00 01       	movw	r0, r0
 45c:	56 2c       	mov	r5, r6
 45e:	00 00       	nop
 460:	00 f6       	brcc	.-128    	; 0x3e2 <vfprintf+0x272>
 462:	00 00       	nop
 464:	00 26       	eor	r0, r16
 466:	79 00       	.word	0x0079	; ????
 468:	01 56       	subi	r16, 0x61	; 97
 46a:	2c 00       	.word	0x002c	; ????
 46c:	00 00       	nop
 46e:	1f 01       	movw	r2, r30
 470:	00 00       	nop
 472:	00 27       	eor	r16, r16
 474:	01 29       	or	r16, r1
 476:	00 00       	nop
 478:	00 01       	movw	r0, r0
 47a:	60 ce       	rjmp	.-832    	; 0x13c <__ctors_end+0x4>
 47c:	08 00       	.word	0x0008	; ????
 47e:	00 60       	ori	r16, 0x00	; 0
 480:	09 00       	.word	0x0009	; ????
 482:	00 02       	muls	r16, r16
 484:	90 20       	and	r9, r0
 486:	28 a0       	ldd	r2, Y+32	; 0x20
 488:	01 00       	.word	0x0001	; ????
 48a:	00 01       	movw	r0, r0
 48c:	7f 01       	movw	r14, r30
 48e:	3e 00       	.word	0x003e	; ????
 490:	00 00       	nop
 492:	60 09       	sbc	r22, r0
 494:	00 00       	nop
 496:	74 09       	sbc	r23, r4
 498:	00 00       	nop
 49a:	02 90       	ld	r0, -Z
 49c:	20 be       	out	0x30, r2	; 48
 49e:	04 00       	.word	0x0004	; ????
 4a0:	00 26       	eor	r0, r16
 4a2:	63 00       	.word	0x0063	; ????
 4a4:	01 7e       	andi	r16, 0xE1	; 225
 4a6:	06 01       	movw	r0, r12
 4a8:	00 00       	nop
 4aa:	48 01       	movw	r8, r16
 4ac:	00 00       	nop
 4ae:	1c 3d       	cpi	r17, 0xDC	; 220
 4b0:	01 00       	.word	0x0001	; ????
 4b2:	00 01       	movw	r0, r0
 4b4:	7e 22       	and	r7, r30
 4b6:	01 00       	.word	0x0001	; ????
 4b8:	00 66       	ori	r16, 0x60	; 96
 4ba:	01 00       	.word	0x0001	; ????
 4bc:	00 00       	nop
 4be:	29 4a       	sbci	r18, 0xA9	; 169
 4c0:	02 00       	.word	0x0002	; ????
 4c2:	00 74       	andi	r16, 0x40	; 64
 4c4:	09 00       	.word	0x0009	; ????
 4c6:	00 88       	ldd	r0, Z+16	; 0x10
 4c8:	09 00       	.word	0x0009	; ????
 4ca:	00 02       	muls	r16, r16
 4cc:	90 20       	and	r9, r0
 4ce:	43 05       	cpc	r20, r3
 4d0:	00 00       	nop
 4d2:	1f 62       	ori	r17, 0x2F	; 47
 4d4:	01 00       	.word	0x0001	; ????
 4d6:	00 76       	andi	r16, 0x60	; 96
 4d8:	09 00       	.word	0x0009	; ????
 4da:	00 80       	ld	r0, Z
 4dc:	09 00       	.word	0x0009	; ????
 4de:	00 03       	mulsu	r16, r16
 4e0:	04 0c       	add	r0, r4
 4e2:	05 00       	.word	0x0005	; ????
 4e4:	00 20       	and	r0, r0
 4e6:	76 09       	sbc	r23, r6
 4e8:	00 00       	nop
 4ea:	80 09       	sbc	r24, r0
 4ec:	00 00       	nop
 4ee:	21 49       	sbci	r18, 0x91	; 145
 4f0:	01 00       	.word	0x0001	; ????
 4f2:	00 76       	andi	r16, 0x60	; 96
 4f4:	09 00       	.word	0x0009	; ????
 4f6:	00 80       	ld	r0, Z
 4f8:	09 00       	.word	0x0009	; ????
 4fa:	00 05       	cpc	r16, r0
 4fc:	82 23       	and	r24, r18
 4fe:	56 01       	movw	r10, r12
 500:	00 00       	nop
 502:	06 6e       	ori	r16, 0xE6	; 230
 504:	93 01       	movw	r18, r6
 506:	6f 93       	push	r22
 508:	01 00       	.word	0x0001	; ????
 50a:	00 00       	nop
 50c:	21 62       	ori	r18, 0x21	; 33
 50e:	01 00       	.word	0x0001	; ????
 510:	00 82       	st	Z, r0
 512:	09 00       	.word	0x0009	; ????
 514:	00 86       	std	Z+8, r0	; 0x08
 516:	09 00       	.word	0x0009	; ????
 518:	00 03       	mulsu	r16, r16
 51a:	06 20       	and	r0, r6
 51c:	82 09       	sbc	r24, r2
 51e:	00 00       	nop
 520:	86 09       	sbc	r24, r6
 522:	00 00       	nop
 524:	21 49       	sbci	r18, 0x91	; 145
 526:	01 00       	.word	0x0001	; ????
 528:	00 82       	st	Z, r0
 52a:	09 00       	.word	0x0009	; ????
 52c:	00 86       	std	Z+8, r0	; 0x08
 52e:	09 00       	.word	0x0009	; ????
 530:	00 05       	cpc	r16, r0
 532:	82 23       	and	r24, r18
 534:	56 01       	movw	r10, r12
 536:	00 00       	nop
 538:	06 68       	ori	r16, 0x86	; 134
 53a:	93 01       	movw	r18, r6
 53c:	69 93       	st	Y+, r22
 53e:	01 00       	.word	0x0001	; ????
 540:	00 00       	nop
 542:	00 29       	or	r16, r0
 544:	69 02       	muls	r22, r25
 546:	00 00       	nop
 548:	88 09       	sbc	r24, r8
 54a:	00 00       	nop
 54c:	ae 09       	sbc	r26, r14
 54e:	00 00       	nop
 550:	02 90       	ld	r0, -Z
 552:	20 d8       	rcall	.-4032   	; 0xfffff594 <__eeprom_end+0xff7ef594>
 554:	05 00       	.word	0x0005	; ????
 556:	00 23       	and	r16, r16
 558:	77 02       	muls	r23, r23
 55a:	00 00       	nop
 55c:	06 68       	ori	r16, 0x86	; 134
 55e:	93 01       	movw	r18, r6
 560:	69 93       	st	Y+, r22
 562:	01 20       	and	r0, r1
 564:	8c 09       	sbc	r24, r12
 566:	00 00       	nop
 568:	ac 09       	sbc	r26, r12
 56a:	00 00       	nop
 56c:	2a 83       	std	Y+2, r18	; 0x02
 56e:	02 00       	.word	0x0002	; ????
 570:	00 06       	cpc	r0, r16
 572:	62 93       	st	-Z, r22
 574:	01 63       	ori	r16, 0x31	; 49
 576:	93 01       	movw	r18, r6
 578:	2b 62       	ori	r18, 0x2B	; 43
 57a:	01 00       	.word	0x0001	; ????
 57c:	00 00       	nop
 57e:	00 00       	nop
 580:	00 03       	mulsu	r16, r16
 582:	16 a3       	std	Z+38, r17	; 0x26
 584:	05 00       	.word	0x0005	; ????
 586:	00 2c       	mov	r0, r0
 588:	18 00       	.word	0x0018	; ????
 58a:	00 00       	nop
 58c:	2d 49       	sbci	r18, 0x9D	; 157
 58e:	01 00       	.word	0x0001	; ????
 590:	00 30       	cpi	r16, 0x00	; 0
 592:	00 00       	nop
 594:	00 05       	cpc	r16, r0
 596:	82 22       	and	r8, r18
 598:	56 01       	movw	r10, r12
 59a:	00 00       	nop
 59c:	8e 01       	movw	r16, r28
 59e:	00 00       	nop
 5a0:	00 00       	nop
 5a2:	00 21       	and	r16, r0
 5a4:	62 01       	movw	r12, r4
 5a6:	00 00       	nop
 5a8:	9c 09       	sbc	r25, r12
 5aa:	00 00       	nop
 5ac:	a2 09       	sbc	r26, r2
 5ae:	00 00       	nop
 5b0:	03 18       	sub	r0, r3
 5b2:	20 9c       	mul	r2, r0
 5b4:	09 00       	.word	0x0009	; ????
 5b6:	00 a2       	std	Z+32, r0	; 0x20
 5b8:	09 00       	.word	0x0009	; ????
 5ba:	00 21       	and	r16, r0
 5bc:	49 01       	movw	r8, r18
 5be:	00 00       	nop
 5c0:	9c 09       	sbc	r25, r12
 5c2:	00 00       	nop
 5c4:	a2 09       	sbc	r26, r2
 5c6:	00 00       	nop
 5c8:	05 82       	std	Z+5, r0	; 0x05
 5ca:	22 56       	subi	r18, 0x62	; 98
 5cc:	01 00       	.word	0x0001	; ????
 5ce:	00 a6       	std	Z+40, r0	; 0x28
 5d0:	01 00       	.word	0x0001	; ????
 5d2:	00 00       	nop
 5d4:	00 00       	nop
 5d6:	00 00       	nop
 5d8:	2e 01       	movw	r4, r28
 5da:	d1 00       	.word	0x00d1	; ????
 5dc:	00 00       	nop
 5de:	03 1d       	adc	r16, r3
 5e0:	01 2c       	mov	r0, r1
 5e2:	00 00       	nop
 5e4:	00 ae       	std	Z+56, r0	; 0x38
 5e6:	09 00       	.word	0x0009	; ????
 5e8:	00 c4       	rjmp	.+2048   	; 0xdea <__ftoa_engine+0x178>
 5ea:	09 00       	.word	0x0009	; ????
 5ec:	00 02       	muls	r16, r16
 5ee:	90 20       	and	r9, r0
 5f0:	04 06       	cpc	r0, r20
 5f2:	00 00       	nop
 5f4:	1e 53       	subi	r17, 0x3E	; 62
 5f6:	01 00       	.word	0x0001	; ????
 5f8:	00 03       	mulsu	r16, r16
 5fa:	1e 45       	sbci	r17, 0x5E	; 94
 5fc:	00 00       	nop
 5fe:	00 ce       	rjmp	.-1024   	; 0x200 <vfprintf+0x90>
 600:	01 00       	.word	0x0001	; ????
 602:	00 00       	nop
 604:	2f 01       	movw	r4, r30
 606:	89 00       	.word	0x0089	; ????
 608:	00 00       	nop
 60a:	04 2b       	or	r16, r20
 60c:	01 c4       	rjmp	.+2050   	; 0xe10 <__ftoa_engine+0x19e>
 60e:	09 00       	.word	0x0009	; ????
 610:	00 0e       	add	r0, r16
 612:	0a 00       	.word	0x000a	; ????
 614:	00 02       	muls	r16, r16
 616:	90 20       	and	r9, r0
 618:	2f 01       	movw	r4, r30
 61a:	86 01       	movw	r16, r12
 61c:	00 00       	nop
 61e:	04 30       	cpi	r16, 0x04	; 4
 620:	01 0e       	add	r0, r17
 622:	0a 00       	.word	0x000a	; ????
 624:	00 2c       	mov	r0, r0
 626:	0a 00       	.word	0x000a	; ????
 628:	00 02       	muls	r16, r16
 62a:	90 20       	and	r9, r0
 62c:	2f 01       	movw	r4, r30
 62e:	73 00       	.word	0x0073	; ????
 630:	00 00       	nop
 632:	04 35       	cpi	r16, 0x54	; 84
 634:	01 2c       	mov	r0, r1
 636:	0a 00       	.word	0x000a	; ????
 638:	00 4a       	sbci	r16, 0xA0	; 160
 63a:	0a 00       	.word	0x000a	; ????
 63c:	00 02       	muls	r16, r16
 63e:	90 20       	and	r9, r0
 640:	30 01       	movw	r6, r0
 642:	24 00       	.word	0x0024	; ????
 644:	00 00       	nop
 646:	04 3e       	cpi	r16, 0xE4	; 228
 648:	3e 00       	.word	0x003e	; ????
 64a:	00 00       	nop
 64c:	4a 0a       	sbc	r4, r26
 64e:	00 00       	nop
 650:	0c 0c       	add	r0, r12
 652:	00 00       	nop
 654:	02 90       	ld	r0, -Z
 656:	20 87       	std	Z+8, r18	; 0x08
 658:	09 00       	.word	0x0009	; ????
 65a:	00 1f       	adc	r16, r16
 65c:	62 01       	movw	r12, r4
 65e:	00 00       	nop
 660:	72 0a       	sbc	r7, r18
 662:	00 00       	nop
 664:	80 0a       	sbc	r8, r16
 666:	00 00       	nop
 668:	04 46       	sbci	r16, 0x64	; 100
 66a:	a5 06       	cpc	r10, r21
 66c:	00 00       	nop
 66e:	14 6f       	ori	r17, 0xF4	; 244
 670:	01 00       	.word	0x0001	; ????
 672:	00 20       	and	r0, r0
 674:	72 0a       	sbc	r7, r18
 676:	00 00       	nop
 678:	80 0a       	sbc	r8, r16
 67a:	00 00       	nop
 67c:	31 7a       	andi	r19, 0xA1	; 161
 67e:	01 00       	.word	0x0001	; ????
 680:	00 e6       	ldi	r16, 0x60	; 96
 682:	01 00       	.word	0x0001	; ????
 684:	00 16       	cp	r0, r16
 686:	85 01       	movw	r16, r10
 688:	00 00       	nop
 68a:	21 49       	sbci	r18, 0x91	; 145
 68c:	01 00       	.word	0x0001	; ????
 68e:	00 72       	andi	r16, 0x20	; 32
 690:	0a 00       	.word	0x000a	; ????
 692:	00 7c       	andi	r16, 0xC0	; 192
 694:	0a 00       	.word	0x000a	; ????
 696:	00 05       	cpc	r16, r0
 698:	7b 22       	and	r7, r27
 69a:	56 01       	movw	r10, r12
 69c:	00 00       	nop
 69e:	fe 01       	movw	r30, r28
 6a0:	00 00       	nop
 6a2:	00 00       	nop
 6a4:	00 1f       	adc	r16, r16
 6a6:	fc 01       	movw	r30, r24
 6a8:	00 00       	nop
 6aa:	80 0a       	sbc	r8, r16
 6ac:	00 00       	nop
 6ae:	dc 0a       	sbc	r13, r28
 6b0:	00 00       	nop
 6b2:	04 49       	sbci	r16, 0x94	; 148
 6b4:	9a 07       	cpc	r25, r26
 6b6:	00 00       	nop
 6b8:	1f 62       	ori	r17, 0x2F	; 47
 6ba:	01 00       	.word	0x0001	; ????
 6bc:	00 88       	ldd	r0, Z+16	; 0x10
 6be:	0a 00       	.word	0x000a	; ????
 6c0:	00 98       	cbi	0x00, 0	; 0
 6c2:	0a 00       	.word	0x000a	; ????
 6c4:	00 01       	movw	r0, r0
 6c6:	33 02       	muls	r19, r19
 6c8:	07 00       	.word	0x0007	; ????
 6ca:	00 14       	cp	r0, r0
 6cc:	6f 01       	movw	r12, r30
 6ce:	00 00       	nop
 6d0:	20 88       	ldd	r2, Z+16	; 0x10
 6d2:	0a 00       	.word	0x000a	; ????
 6d4:	00 98       	cbi	0x00, 0	; 0
 6d6:	0a 00       	.word	0x000a	; ????
 6d8:	00 31       	cpi	r16, 0x10	; 16
 6da:	7a 01       	movw	r14, r20
 6dc:	00 00       	nop
 6de:	16 02       	muls	r17, r22
 6e0:	00 00       	nop
 6e2:	16 85       	ldd	r17, Z+14	; 0x0e
 6e4:	01 00       	.word	0x0001	; ????
 6e6:	00 21       	and	r16, r0
 6e8:	49 01       	movw	r8, r18
 6ea:	00 00       	nop
 6ec:	88 0a       	sbc	r8, r24
 6ee:	00 00       	nop
 6f0:	92 0a       	sbc	r9, r18
 6f2:	00 00       	nop
 6f4:	05 7b       	andi	r16, 0xB5	; 181
 6f6:	22 56       	subi	r18, 0x62	; 98
 6f8:	01 00       	.word	0x0001	; ????
 6fa:	00 2e       	mov	r0, r16
 6fc:	02 00       	.word	0x0002	; ????
 6fe:	00 00       	nop
 700:	00 00       	nop
 702:	1f b3       	in	r17, 0x1f	; 31
 704:	01 00       	.word	0x0001	; ????
 706:	00 9c       	mul	r0, r0
 708:	0a 00       	.word	0x000a	; ????
 70a:	00 a4       	ldd	r0, Z+40	; 0x28
 70c:	0a 00       	.word	0x000a	; ????
 70e:	00 01       	movw	r0, r0
 710:	35 53       	subi	r19, 0x35	; 53
 712:	07 00       	.word	0x0007	; ????
 714:	00 20       	and	r0, r0
 716:	9c 0a       	sbc	r9, r28
 718:	00 00       	nop
 71a:	a4 0a       	sbc	r10, r20
 71c:	00 00       	nop
 71e:	21 62       	ori	r18, 0x21	; 33
 720:	01 00       	.word	0x0001	; ????
 722:	00 9c       	mul	r0, r0
 724:	0a 00       	.word	0x000a	; ????
 726:	00 a4       	ldd	r0, Z+40	; 0x28
 728:	0a 00       	.word	0x000a	; ????
 72a:	00 05       	cpc	r16, r0
 72c:	9c 20       	and	r9, r12
 72e:	9c 0a       	sbc	r9, r28
 730:	00 00       	nop
 732:	a4 0a       	sbc	r10, r20
 734:	00 00       	nop
 736:	21 49       	sbci	r18, 0x91	; 145
 738:	01 00       	.word	0x0001	; ????
 73a:	00 9c       	mul	r0, r0
 73c:	0a 00       	.word	0x000a	; ????
 73e:	00 a4       	ldd	r0, Z+40	; 0x28
 740:	0a 00       	.word	0x000a	; ????
 742:	00 05       	cpc	r16, r0
 744:	82 22       	and	r8, r18
 746:	56 01       	movw	r10, r12
 748:	00 00       	nop
 74a:	46 02       	muls	r20, r22
 74c:	00 00       	nop
 74e:	00 00       	nop
 750:	00 00       	nop
 752:	00 21       	and	r16, r0
 754:	62 01       	movw	r12, r4
 756:	00 00       	nop
 758:	aa 0a       	sbc	r10, r26
 75a:	00 00       	nop
 75c:	b8 0a       	sbc	r11, r24
 75e:	00 00       	nop
 760:	01 37       	cpi	r16, 0x71	; 113
 762:	14 6f       	ori	r17, 0xF4	; 244
 764:	01 00       	.word	0x0001	; ????
 766:	00 20       	and	r0, r0
 768:	aa 0a       	sbc	r10, r26
 76a:	00 00       	nop
 76c:	b8 0a       	sbc	r11, r24
 76e:	00 00       	nop
 770:	31 7a       	andi	r19, 0xA1	; 161
 772:	01 00       	.word	0x0001	; ????
 774:	00 5e       	subi	r16, 0xE0	; 224
 776:	02 00       	.word	0x0002	; ????
 778:	00 16       	cp	r0, r16
 77a:	85 01       	movw	r16, r10
 77c:	00 00       	nop
 77e:	21 49       	sbci	r18, 0x91	; 145
 780:	01 00       	.word	0x0001	; ????
 782:	00 aa       	std	Z+48, r0	; 0x30
 784:	0a 00       	.word	0x000a	; ????
 786:	00 b4       	in	r0, 0x20	; 32
 788:	0a 00       	.word	0x000a	; ????
 78a:	00 05       	cpc	r16, r0
 78c:	7b 22       	and	r7, r27
 78e:	56 01       	movw	r10, r12
 790:	00 00       	nop
 792:	76 02       	muls	r23, r22
 794:	00 00       	nop
 796:	00 00       	nop
 798:	00 00       	nop
 79a:	20 40       	sbci	r18, 0x00	; 0
 79c:	0b 00       	.word	0x000b	; ????
 79e:	00 0c       	add	r0, r0
 7a0:	0c 00       	.word	0x000c	; ????
 7a2:	00 32       	cpi	r16, 0x20	; 32
 7a4:	69 00       	.word	0x0069	; ????
 7a6:	04 6a       	ori	r16, 0xA4	; 164
 7a8:	45 00       	.word	0x0045	; ????
 7aa:	00 00       	nop
 7ac:	06 6c       	ori	r16, 0xC6	; 198
 7ae:	93 01       	movw	r18, r6
 7b0:	6d 93       	st	X+, r22
 7b2:	01 2b       	or	r16, r17
 7b4:	62 01       	movw	r12, r4
 7b6:	00 00       	nop
 7b8:	48 00       	.word	0x0048	; ????
 7ba:	00 00       	nop
 7bc:	04 6c       	ori	r16, 0xC4	; 196
 7be:	f1 07       	cpc	r31, r17
 7c0:	00 00       	nop
 7c2:	14 6f       	ori	r17, 0xF4	; 244
 7c4:	01 00       	.word	0x0001	; ????
 7c6:	00 2c       	mov	r0, r0
 7c8:	60 00       	.word	0x0060	; ????
 7ca:	00 00       	nop
 7cc:	31 7a       	andi	r19, 0xA1	; 161
 7ce:	01 00       	.word	0x0001	; ????
 7d0:	00 8e       	std	Z+24, r0	; 0x18
 7d2:	02 00       	.word	0x0002	; ????
 7d4:	00 16       	cp	r0, r16
 7d6:	85 01       	movw	r16, r10
 7d8:	00 00       	nop
 7da:	2d 49       	sbci	r18, 0x9D	; 157
 7dc:	01 00       	.word	0x0001	; ????
 7de:	00 78       	andi	r16, 0x80	; 128
 7e0:	00 00       	nop
 7e2:	00 05       	cpc	r16, r0
 7e4:	7b 22       	and	r7, r27
 7e6:	56 01       	movw	r10, r12
 7e8:	00 00       	nop
 7ea:	b6 02       	muls	r27, r22
 7ec:	00 00       	nop
 7ee:	00 00       	nop
 7f0:	00 2b       	or	r16, r16
 7f2:	4a 02       	muls	r20, r26
 7f4:	00 00       	nop
 7f6:	90 00       	.word	0x0090	; ????
 7f8:	00 00       	nop
 7fa:	04 6d       	ori	r16, 0xD4	; 212
 7fc:	5f 08       	sbc	r5, r15
 7fe:	00 00       	nop
 800:	2b 62       	ori	r18, 0x2B	; 43
 802:	01 00       	.word	0x0001	; ????
 804:	00 a8       	ldd	r0, Z+48	; 0x30
 806:	00 00       	nop
 808:	00 03       	mulsu	r16, r16
 80a:	04 2b       	or	r16, r20
 80c:	08 00       	.word	0x0008	; ????
 80e:	00 2c       	mov	r0, r0
 810:	c0 00       	.word	0x00c0	; ????
 812:	00 00       	nop
 814:	2d 49       	sbci	r18, 0x9D	; 157
 816:	01 00       	.word	0x0001	; ????
 818:	00 d8       	rcall	.-4096   	; 0xfffff81a <__eeprom_end+0xff7ef81a>
 81a:	00 00       	nop
 81c:	00 05       	cpc	r16, r0
 81e:	82 22       	and	r8, r18
 820:	56 01       	movw	r10, r12
 822:	00 00       	nop
 824:	ce 02       	muls	r28, r30
 826:	00 00       	nop
 828:	00 00       	nop
 82a:	00 21       	and	r16, r0
 82c:	62 01       	movw	r12, r4
 82e:	00 00       	nop
 830:	72 0b       	sbc	r23, r18
 832:	00 00       	nop
 834:	7c 0b       	sbc	r23, r28
 836:	00 00       	nop
 838:	03 06       	cpc	r0, r19
 83a:	20 72       	andi	r18, 0x20	; 32
 83c:	0b 00       	.word	0x000b	; ????
 83e:	00 7c       	andi	r16, 0xC0	; 192
 840:	0b 00       	.word	0x000b	; ????
 842:	00 21       	and	r16, r0
 844:	49 01       	movw	r8, r18
 846:	00 00       	nop
 848:	72 0b       	sbc	r23, r18
 84a:	00 00       	nop
 84c:	7c 0b       	sbc	r23, r28
 84e:	00 00       	nop
 850:	05 82       	std	Z+5, r0	; 0x05
 852:	22 56       	subi	r18, 0x62	; 98
 854:	01 00       	.word	0x0001	; ????
 856:	00 e6       	ldi	r16, 0x60	; 96
 858:	02 00       	.word	0x0002	; ????
 85a:	00 00       	nop
 85c:	00 00       	nop
 85e:	00 1f       	adc	r16, r16
 860:	62 01       	movw	r12, r4
 862:	00 00       	nop
 864:	7c 0b       	sbc	r23, r28
 866:	00 00       	nop
 868:	8c 0b       	sbc	r24, r28
 86a:	00 00       	nop
 86c:	04 6e       	ori	r16, 0xE4	; 228
 86e:	a9 08       	sbc	r10, r9
 870:	00 00       	nop
 872:	14 6f       	ori	r17, 0xF4	; 244
 874:	01 00       	.word	0x0001	; ????
 876:	00 20       	and	r0, r0
 878:	7c 0b       	sbc	r23, r28
 87a:	00 00       	nop
 87c:	8c 0b       	sbc	r24, r28
 87e:	00 00       	nop
 880:	31 7a       	andi	r19, 0xA1	; 161
 882:	01 00       	.word	0x0001	; ????
 884:	00 fe       	sbrs	r0, 0
 886:	02 00       	.word	0x0002	; ????
 888:	00 16       	cp	r0, r16
 88a:	85 01       	movw	r16, r10
 88c:	00 00       	nop
 88e:	21 49       	sbci	r18, 0x91	; 145
 890:	01 00       	.word	0x0001	; ????
 892:	00 7c       	andi	r16, 0xC0	; 192
 894:	0b 00       	.word	0x000b	; ????
 896:	00 82       	st	Z, r0
 898:	0b 00       	.word	0x000b	; ????
 89a:	00 05       	cpc	r16, r0
 89c:	7b 22       	and	r7, r27
 89e:	56 01       	movw	r10, r12
 8a0:	00 00       	nop
 8a2:	26 03       	mulsu	r18, r22
 8a4:	00 00       	nop
 8a6:	00 00       	nop
 8a8:	00 1f       	adc	r16, r16
 8aa:	69 02       	muls	r22, r25
 8ac:	00 00       	nop
 8ae:	8c 0b       	sbc	r24, r28
 8b0:	00 00       	nop
 8b2:	aa 0b       	sbc	r26, r26
 8b4:	00 00       	nop
 8b6:	04 6f       	ori	r16, 0xF4	; 244
 8b8:	3f 09       	sbc	r19, r15
 8ba:	00 00       	nop
 8bc:	14 57       	subi	r17, 0x74	; 116
 8be:	05 00       	.word	0x0005	; ????
 8c0:	00 20       	and	r0, r0
 8c2:	8c 0b       	sbc	r24, r28
 8c4:	00 00       	nop
 8c6:	aa 0b       	sbc	r26, r26
 8c8:	00 00       	nop
 8ca:	31 83       	std	Z+1, r19	; 0x01
 8cc:	02 00       	.word	0x0002	; ????
 8ce:	00 3e       	cpi	r16, 0xE0	; 224
 8d0:	03 00       	.word	0x0003	; ????
 8d2:	00 1f       	adc	r16, r16
 8d4:	62 01       	movw	r12, r4
 8d6:	00 00       	nop
 8d8:	8e 0b       	sbc	r24, r30
 8da:	00 00       	nop
 8dc:	94 0b       	sbc	r25, r20
 8de:	00 00       	nop
 8e0:	03 16       	cp	r0, r19
 8e2:	0a 09       	sbc	r16, r10
 8e4:	00 00       	nop
 8e6:	20 8e       	std	Z+24, r2	; 0x18
 8e8:	0b 00       	.word	0x000b	; ????
 8ea:	00 94       	com	r0
 8ec:	0b 00       	.word	0x000b	; ????
 8ee:	00 21       	and	r16, r0
 8f0:	49 01       	movw	r8, r18
 8f2:	00 00       	nop
 8f4:	8e 0b       	sbc	r24, r30
 8f6:	00 00       	nop
 8f8:	94 0b       	sbc	r25, r20
 8fa:	00 00       	nop
 8fc:	05 82       	std	Z+5, r0	; 0x05
 8fe:	22 56       	subi	r18, 0x62	; 98
 900:	01 00       	.word	0x0001	; ????
 902:	00 56       	subi	r16, 0x60	; 96
 904:	03 00       	.word	0x0003	; ????
 906:	00 00       	nop
 908:	00 00       	nop
 90a:	21 62       	ori	r18, 0x21	; 33
 90c:	01 00       	.word	0x0001	; ????
 90e:	00 96       	adiw	r24, 0x00	; 0
 910:	0b 00       	.word	0x000b	; ????
 912:	00 9c       	mul	r0, r0
 914:	0b 00       	.word	0x000b	; ????
 916:	00 03       	mulsu	r16, r16
 918:	18 20       	and	r1, r8
 91a:	96 0b       	sbc	r25, r22
 91c:	00 00       	nop
 91e:	9c 0b       	sbc	r25, r28
 920:	00 00       	nop
 922:	21 49       	sbci	r18, 0x91	; 145
 924:	01 00       	.word	0x0001	; ????
 926:	00 96       	adiw	r24, 0x00	; 0
 928:	0b 00       	.word	0x000b	; ????
 92a:	00 9c       	mul	r0, r0
 92c:	0b 00       	.word	0x000b	; ????
 92e:	00 05       	cpc	r16, r0
 930:	82 22       	and	r8, r18
 932:	56 01       	movw	r10, r12
 934:	00 00       	nop
 936:	6e 03       	fmul	r22, r22
 938:	00 00       	nop
 93a:	00 00       	nop
 93c:	00 00       	nop
 93e:	00 21       	and	r16, r0
 940:	62 01       	movw	r12, r4
 942:	00 00       	nop
 944:	aa 0b       	sbc	r26, r26
 946:	00 00       	nop
 948:	b4 0b       	sbc	r27, r20
 94a:	00 00       	nop
 94c:	04 70       	andi	r16, 0x04	; 4
 94e:	14 6f       	ori	r17, 0xF4	; 244
 950:	01 00       	.word	0x0001	; ????
 952:	00 20       	and	r0, r0
 954:	aa 0b       	sbc	r26, r26
 956:	00 00       	nop
 958:	b4 0b       	sbc	r27, r20
 95a:	00 00       	nop
 95c:	31 7a       	andi	r19, 0xA1	; 161
 95e:	01 00       	.word	0x0001	; ????
 960:	00 96       	adiw	r24, 0x00	; 0
 962:	03 00       	.word	0x0003	; ????
 964:	00 16       	cp	r0, r16
 966:	85 01       	movw	r16, r10
 968:	00 00       	nop
 96a:	21 49       	sbci	r18, 0x91	; 145
 96c:	01 00       	.word	0x0001	; ????
 96e:	00 aa       	std	Z+48, r0	; 0x30
 970:	0b 00       	.word	0x000b	; ????
 972:	00 b0       	in	r0, 0x00	; 0
 974:	0b 00       	.word	0x000b	; ????
 976:	00 05       	cpc	r16, r0
 978:	7b 22       	and	r7, r27
 97a:	56 01       	movw	r10, r12
 97c:	00 00       	nop
 97e:	ae 03       	fmulsu	r18, r22
 980:	00 00       	nop
 982:	00 00       	nop
 984:	00 00       	nop
 986:	00 1b       	sub	r16, r16
 988:	01 7e       	andi	r16, 0xE1	; 225
 98a:	00 00       	nop
 98c:	00 03       	mulsu	r16, r16
 98e:	0b 01       	movw	r0, r22
 990:	0c 0c       	add	r0, r12
 992:	00 00       	nop
 994:	4a 0c       	add	r4, r10
 996:	00 00       	nop
 998:	02 90       	ld	r0, -Z
 99a:	20 ec       	ldi	r18, 0xC0	; 192
 99c:	09 00       	.word	0x0009	; ????
 99e:	00 21       	and	r16, r0
 9a0:	62 01       	movw	r12, r4
 9a2:	00 00       	nop
 9a4:	38 0c       	add	r3, r8
 9a6:	00 00       	nop
 9a8:	48 0c       	add	r4, r8
 9aa:	00 00       	nop
 9ac:	03 0e       	add	r0, r19
 9ae:	14 6f       	ori	r17, 0xF4	; 244
 9b0:	01 00       	.word	0x0001	; ????
 9b2:	00 20       	and	r0, r0
 9b4:	38 0c       	add	r3, r8
 9b6:	00 00       	nop
 9b8:	48 0c       	add	r4, r8
 9ba:	00 00       	nop
 9bc:	2a 7a       	andi	r18, 0xAA	; 170
 9be:	01 00       	.word	0x0001	; ????
 9c0:	00 06       	cpc	r0, r16
 9c2:	62 93       	st	-Z, r22
 9c4:	01 63       	ori	r16, 0x31	; 49
 9c6:	93 01       	movw	r18, r6
 9c8:	16 85       	ldd	r17, Z+14	; 0x0e
 9ca:	01 00       	.word	0x0001	; ????
 9cc:	00 21       	and	r16, r0
 9ce:	49 01       	movw	r8, r18
 9d0:	00 00       	nop
 9d2:	38 0c       	add	r3, r8
 9d4:	00 00       	nop
 9d6:	42 0c       	add	r4, r2
 9d8:	00 00       	nop
 9da:	05 7b       	andi	r16, 0xB5	; 181
 9dc:	23 56       	subi	r18, 0x63	; 99
 9de:	01 00       	.word	0x0001	; ????
 9e0:	00 06       	cpc	r0, r16
 9e2:	68 93       	.word	0x9368	; ????
 9e4:	01 69       	ori	r16, 0x91	; 145
 9e6:	93 01       	movw	r18, r6
 9e8:	00 00       	nop
 9ea:	00 00       	nop
 9ec:	1b 01       	movw	r2, r22
 9ee:	1c 00       	.word	0x001c	; ????
 9f0:	00 00       	nop
 9f2:	01 4d       	sbci	r16, 0xD1	; 209
 9f4:	01 4a       	sbci	r16, 0xA1	; 161
 9f6:	0c 00       	.word	0x000c	; ????
 9f8:	00 72       	andi	r16, 0x20	; 32
 9fa:	0c 00       	.word	0x000c	; ????
 9fc:	00 02       	muls	r16, r16
 9fe:	90 20       	and	r9, r0
 a00:	32 0a       	sbc	r3, r18
 a02:	00 00       	nop
 a04:	1c 53       	subi	r17, 0x3C	; 60
 a06:	01 00       	.word	0x0001	; ????
 a08:	00 01       	movw	r0, r0
 a0a:	4c 57       	subi	r20, 0x7C	; 124
 a0c:	00 00       	nop
 a0e:	00 c6       	rjmp	.+3072   	; 0x1610 <__data_load_end+0x506>
 a10:	03 00       	.word	0x0003	; ????
 a12:	00 24       	eor	r0, r0
 a14:	69 00       	.word	0x0069	; ????
 a16:	01 50       	subi	r16, 0x01	; 1
 a18:	2c 00       	.word	0x002c	; ????
 a1a:	00 00       	nop
 a1c:	e4 03       	fmuls	r22, r20
 a1e:	00 00       	nop
 a20:	33 4a       	sbci	r19, 0xA3	; 163
 a22:	01 00       	.word	0x0001	; ????
 a24:	00 01       	movw	r0, r0
 a26:	4e 32       	cpi	r20, 0x2E	; 46
 a28:	0a 00       	.word	0x000a	; ????
 a2a:	00 05       	cpc	r16, r0
 a2c:	03 ae       	std	Z+59, r0	; 0x3b
 a2e:	00 80       	ld	r0, Z
 a30:	00 00       	nop
 a32:	34 06       	cpc	r3, r20
 a34:	01 00       	.word	0x0001	; ????
 a36:	00 42       	sbci	r16, 0x20	; 32
 a38:	0a 00       	.word	0x000a	; ????
 a3a:	00 35       	cpi	r16, 0x50	; 80
 a3c:	42 0a       	sbc	r4, r18
 a3e:	00 00       	nop
 a40:	20 00       	.word	0x0020	; ????
 a42:	0e 02       	muls	r16, r30
 a44:	07 33       	cpi	r16, 0x37	; 55
 a46:	db 00       	.word	0x00db	; ????
 a48:	00 00       	nop
 a4a:	04 20       	and	r0, r4
 a4c:	7e 00       	.word	0x007e	; ????
 a4e:	00 00       	nop
 a50:	05 03       	mulsu	r16, r21
 a52:	9b 00       	.word	0x009b	; ????
 a54:	80 00       	.word	0x0080	; ????
 a56:	34 22       	and	r3, r20
 a58:	01 00       	.word	0x0001	; ????
 a5a:	00 61       	ori	r16, 0x10	; 16
 a5c:	0a 00       	.word	0x000a	; ????
 a5e:	00 36       	cpi	r16, 0x60	; 96
 a60:	00 37       	cpi	r16, 0x70	; 112
 a62:	55 00       	.word	0x0055	; ????
 a64:	00 00       	nop
 a66:	07 95       	ror	r16
 a68:	01 56       	subi	r16, 0x61	; 97
 a6a:	0a 00       	.word	0x000a	; ????
 a6c:	00 01       	movw	r0, r0
 a6e:	01 34       	cpi	r16, 0x41	; 65
 a70:	2c 00       	.word	0x002c	; ????
 a72:	00 00       	nop
 a74:	7f 0a       	sbc	r7, r31
 a76:	00 00       	nop
 a78:	35 42       	sbci	r19, 0x25	; 37
 a7a:	0a 00       	.word	0x000a	; ????
 a7c:	00 08       	sbc	r0, r0
 a7e:	00 38       	cpi	r16, 0x80	; 128
 a80:	de 01       	movw	r26, r28
 a82:	00 00       	nop
 a84:	04 1c       	adc	r0, r4
 a86:	91 0a       	sbc	r9, r17
 a88:	00 00       	nop
 a8a:	01 05       	cpc	r16, r1
 a8c:	03 2e       	mov	r0, r19
 a8e:	00 00       	nop
 a90:	00 39       	cpi	r16, 0x90	; 144
 a92:	6f 0a       	sbc	r6, r31
 a94:	00 00       	nop
 a96:	34 2c       	mov	r3, r4
 a98:	00 00       	nop
 a9a:	00 a6       	std	Z+40, r0	; 0x28
 a9c:	0a 00       	.word	0x000a	; ????
 a9e:	00 35       	cpi	r16, 0x50	; 80
 aa0:	42 0a       	sbc	r4, r18
 aa2:	00 00       	nop
 aa4:	06 00       	.word	0x0006	; ????
 aa6:	38 d0       	rcall	.+112    	; 0xb18 <main+0xce>
 aa8:	01 00       	.word	0x0001	; ????
 aaa:	00 04       	cpc	r0, r0
 aac:	1d b8       	out	0x0d, r1	; 13
 aae:	0a 00       	.word	0x000a	; ????
 ab0:	00 01       	movw	r0, r0
 ab2:	05 03       	mulsu	r16, r21
 ab4:	37 00       	.word	0x0037	; ????
 ab6:	00 00       	nop
 ab8:	39 96       	adiw	r30, 0x09	; 9
 aba:	0a 00       	.word	0x000a	; ????
 abc:	00 38       	cpi	r16, 0x80	; 128
 abe:	d8 01       	movw	r26, r16
 ac0:	00 00       	nop
 ac2:	04 23       	and	r16, r20
 ac4:	cf 0a       	sbc	r12, r31
 ac6:	00 00       	nop
 ac8:	01 05       	cpc	r16, r1
 aca:	03 d7       	rcall	.+3590   	; 0x18d2 <__data_load_end+0x7c8>
 acc:	00 80       	ld	r0, Z
 ace:	00 3a       	cpi	r16, 0xA0	; 160
 ad0:	2c 00       	.word	0x002c	; ????
 ad2:	00 00       	nop
 ad4:	38 61       	ori	r19, 0x18	; 24
 ad6:	01 00       	.word	0x0001	; ????
 ad8:	00 04       	cpc	r0, r0
 ada:	24 e6       	ldi	r18, 0x64	; 100
 adc:	0a 00       	.word	0x000a	; ????
 ade:	00 01       	movw	r0, r0
 ae0:	05 03       	mulsu	r16, r21
 ae2:	aa 00       	.word	0x00aa	; ????
 ae4:	80 00       	.word	0x0080	; ????
 ae6:	3a 5e       	subi	r19, 0xEA	; 234
 ae8:	00 00       	nop
 aea:	00 38       	cpi	r16, 0x80	; 128
 aec:	11 00       	.word	0x0011	; ????
 aee:	00 00       	nop
 af0:	04 25       	eor	r16, r4
 af2:	5e 00       	.word	0x005e	; ????
 af4:	00 00       	nop
 af6:	01 05       	cpc	r16, r1
 af8:	03 d3       	rcall	.+1542   	; 0x1100 <_etext+0x40>
 afa:	00 80       	ld	r0, Z
 afc:	00 38       	cpi	r16, 0x80	; 128
 afe:	0c 00       	.word	0x000c	; ????
 b00:	00 00       	nop
 b02:	04 26       	eor	r0, r20
 b04:	5e 00       	.word	0x005e	; ????
 b06:	00 00       	nop
 b08:	01 05       	cpc	r16, r1
 b0a:	03 cf       	rjmp	.-506    	; 0x912 <LCD_New+0x44>
 b0c:	00 80       	ld	r0, Z
	...

Disassembly of section .debug_abbrev:

00000000 <.debug_abbrev>:
   0:	01 11       	cpse	r16, r1
   2:	01 25       	eor	r16, r1
   4:	0e 13       	cpse	r16, r30
   6:	0b 03       	fmul	r16, r19
   8:	0e 1b       	sub	r16, r30
   a:	0e 11       	cpse	r16, r14
   c:	01 12       	cpse	r0, r17
   e:	01 10       	cpse	r0, r1
  10:	06 00       	.word	0x0006	; ????
  12:	00 02       	muls	r16, r16
  14:	24 00       	.word	0x0024	; ????
  16:	0b 0b       	sbc	r16, r27
  18:	3e 0b       	sbc	r19, r30
  1a:	03 0e       	add	r0, r19
  1c:	00 00       	nop
  1e:	03 16       	cp	r0, r19
  20:	00 03       	mulsu	r16, r16
  22:	0e 3a       	cpi	r16, 0xAE	; 174
  24:	0b 3b       	cpi	r16, 0xBB	; 187
  26:	0b 49       	sbci	r16, 0x9B	; 155
  28:	13 00       	.word	0x0013	; ????
  2a:	00 04       	cpc	r0, r0
  2c:	24 00       	.word	0x0024	; ????
  2e:	0b 0b       	sbc	r16, r27
  30:	3e 0b       	sbc	r19, r30
  32:	03 08       	sbc	r0, r3
  34:	00 00       	nop
  36:	05 13       	cpse	r16, r21
  38:	01 03       	mulsu	r16, r17
  3a:	0e 0b       	sbc	r16, r30
  3c:	0b 3a       	cpi	r16, 0xAB	; 171
  3e:	0b 3b       	cpi	r16, 0xBB	; 187
  40:	0b 01       	movw	r0, r22
  42:	13 00       	.word	0x0013	; ????
  44:	00 06       	cpc	r0, r16
  46:	0d 00       	.word	0x000d	; ????
  48:	03 08       	sbc	r0, r3
  4a:	3a 0b       	sbc	r19, r26
  4c:	3b 0b       	sbc	r19, r27
  4e:	49 13       	cpse	r20, r25
  50:	38 0a       	sbc	r3, r24
  52:	00 00       	nop
  54:	07 0d       	add	r16, r7
  56:	00 03       	mulsu	r16, r16
  58:	0e 3a       	cpi	r16, 0xAE	; 174
  5a:	0b 3b       	cpi	r16, 0xBB	; 187
  5c:	0b 49       	sbci	r16, 0x9B	; 155
  5e:	13 38       	cpi	r17, 0x83	; 131
  60:	0a 00       	.word	0x000a	; ????
  62:	00 08       	sbc	r0, r0
  64:	0d 00       	.word	0x000d	; ????
  66:	03 0e       	add	r0, r19
  68:	3a 0b       	sbc	r19, r26
  6a:	3b 05       	cpc	r19, r11
  6c:	49 13       	cpse	r20, r25
  6e:	38 0a       	sbc	r3, r24
  70:	00 00       	nop
  72:	09 0d       	add	r16, r9
  74:	00 03       	mulsu	r16, r16
  76:	08 3a       	cpi	r16, 0xA8	; 168
  78:	0b 3b       	cpi	r16, 0xBB	; 187
  7a:	05 49       	sbci	r16, 0x95	; 149
  7c:	13 38       	cpi	r17, 0x83	; 131
  7e:	0a 00       	.word	0x000a	; ????
  80:	00 0a       	sbc	r0, r16
  82:	0f 00       	.word	0x000f	; ????
  84:	0b 0b       	sbc	r16, r27
  86:	49 13       	cpse	r20, r25
  88:	00 00       	nop
  8a:	0b 15       	cp	r16, r11
  8c:	01 27       	eor	r16, r17
  8e:	0c 49       	sbci	r16, 0x9C	; 156
  90:	13 01       	movw	r2, r6
  92:	13 00       	.word	0x0013	; ????
  94:	00 0c       	add	r0, r0
  96:	05 00       	.word	0x0005	; ????
  98:	49 13       	cpse	r20, r25
  9a:	00 00       	nop
  9c:	0d 0f       	add	r16, r29
  9e:	00 0b       	sbc	r16, r16
  a0:	0b 00       	.word	0x000b	; ????
  a2:	00 0e       	add	r0, r16
  a4:	24 00       	.word	0x0024	; ????
  a6:	0b 0b       	sbc	r16, r27
  a8:	3e 0b       	sbc	r19, r30
  aa:	00 00       	nop
  ac:	0f 2e       	mov	r0, r31
  ae:	01 03       	mulsu	r16, r17
  b0:	0e 3a       	cpi	r16, 0xAE	; 174
  b2:	0b 3b       	cpi	r16, 0xBB	; 187
  b4:	0b 27       	eor	r16, r27
  b6:	0c 20       	and	r0, r12
  b8:	0b 01       	movw	r0, r22
  ba:	13 00       	.word	0x0013	; ????
  bc:	00 10       	cpse	r0, r0
  be:	05 00       	.word	0x0005	; ????
  c0:	03 0e       	add	r0, r19
  c2:	3a 0b       	sbc	r19, r26
  c4:	3b 0b       	sbc	r19, r27
  c6:	49 13       	cpse	r20, r25
  c8:	00 00       	nop
  ca:	11 34       	cpi	r17, 0x41	; 65
  cc:	00 03       	mulsu	r16, r16
  ce:	0e 3a       	cpi	r16, 0xAE	; 174
  d0:	0b 3b       	cpi	r16, 0xBB	; 187
  d2:	0b 49       	sbci	r16, 0x9B	; 155
  d4:	13 00       	.word	0x0013	; ????
  d6:	00 12       	cpse	r0, r16
  d8:	0b 00       	.word	0x000b	; ????
  da:	00 00       	nop
  dc:	13 0b       	sbc	r17, r19
  de:	01 01       	movw	r0, r2
  e0:	13 00       	.word	0x0013	; ????
  e2:	00 14       	cp	r0, r0
  e4:	05 00       	.word	0x0005	; ????
  e6:	31 13       	cpse	r19, r17
  e8:	00 00       	nop
  ea:	15 0b       	sbc	r17, r21
  ec:	01 00       	.word	0x0001	; ????
  ee:	00 16       	cp	r0, r16
  f0:	34 00       	.word	0x0034	; ????
  f2:	31 13       	cpse	r19, r17
  f4:	00 00       	nop
  f6:	17 2e       	mov	r1, r23
  f8:	01 03       	mulsu	r16, r17
  fa:	0e 3a       	cpi	r16, 0xAE	; 174
  fc:	0b 3b       	cpi	r16, 0xBB	; 187
  fe:	0b 20       	and	r0, r11
 100:	0b 01       	movw	r0, r22
 102:	13 00       	.word	0x0013	; ????
 104:	00 18       	sub	r0, r0
 106:	2e 01       	movw	r4, r28
 108:	3f 0c       	add	r3, r15
 10a:	03 0e       	add	r0, r19
 10c:	3a 0b       	sbc	r19, r26
 10e:	3b 0b       	sbc	r19, r27
 110:	27 0c       	add	r2, r7
 112:	20 0b       	sbc	r18, r16
 114:	01 13       	cpse	r16, r17
 116:	00 00       	nop
 118:	19 05       	cpc	r17, r9
 11a:	00 03       	mulsu	r16, r16
 11c:	08 3a       	cpi	r16, 0xA8	; 168
 11e:	0b 3b       	cpi	r16, 0xBB	; 187
 120:	0b 49       	sbci	r16, 0x9B	; 155
 122:	13 00       	.word	0x0013	; ????
 124:	00 1a       	sub	r0, r16
 126:	34 00       	.word	0x0034	; ????
 128:	03 08       	sbc	r0, r3
 12a:	3a 0b       	sbc	r19, r26
 12c:	3b 0b       	sbc	r19, r27
 12e:	49 13       	cpse	r20, r25
 130:	00 00       	nop
 132:	1b 2e       	mov	r1, r27
 134:	01 3f       	cpi	r16, 0xF1	; 241
 136:	0c 03       	fmul	r16, r20
 138:	0e 3a       	cpi	r16, 0xAE	; 174
 13a:	0b 3b       	cpi	r16, 0xBB	; 187
 13c:	0b 27       	eor	r16, r27
 13e:	0c 11       	cpse	r16, r12
 140:	01 12       	cpse	r0, r17
 142:	01 40       	sbci	r16, 0x01	; 1
 144:	0a 01       	movw	r0, r20
 146:	13 00       	.word	0x0013	; ????
 148:	00 1c       	adc	r0, r0
 14a:	05 00       	.word	0x0005	; ????
 14c:	03 0e       	add	r0, r19
 14e:	3a 0b       	sbc	r19, r26
 150:	3b 0b       	sbc	r19, r27
 152:	49 13       	cpse	r20, r25
 154:	02 06       	cpc	r0, r18
 156:	00 00       	nop
 158:	1d 05       	cpc	r17, r13
 15a:	00 03       	mulsu	r16, r16
 15c:	0e 3a       	cpi	r16, 0xAE	; 174
 15e:	0b 3b       	cpi	r16, 0xBB	; 187
 160:	0b 49       	sbci	r16, 0x9B	; 155
 162:	13 02       	muls	r17, r19
 164:	0a 00       	.word	0x000a	; ????
 166:	00 1e       	adc	r0, r16
 168:	34 00       	.word	0x0034	; ????
 16a:	03 0e       	add	r0, r19
 16c:	3a 0b       	sbc	r19, r26
 16e:	3b 0b       	sbc	r19, r27
 170:	49 13       	cpse	r20, r25
 172:	02 06       	cpc	r0, r18
 174:	00 00       	nop
 176:	1f 1d       	adc	r17, r15
 178:	01 31       	cpi	r16, 0x11	; 17
 17a:	13 11       	cpse	r17, r3
 17c:	01 12       	cpse	r0, r17
 17e:	01 58       	subi	r16, 0x81	; 129
 180:	0b 59       	subi	r16, 0x9B	; 155
 182:	0b 01       	movw	r0, r22
 184:	13 00       	.word	0x0013	; ????
 186:	00 20       	and	r0, r0
 188:	0b 01       	movw	r0, r22
 18a:	11 01       	movw	r2, r2
 18c:	12 01       	movw	r2, r4
 18e:	00 00       	nop
 190:	21 1d       	adc	r18, r1
 192:	01 31       	cpi	r16, 0x11	; 17
 194:	13 11       	cpse	r17, r3
 196:	01 12       	cpse	r0, r17
 198:	01 58       	subi	r16, 0x81	; 129
 19a:	0b 59       	subi	r16, 0x9B	; 155
 19c:	0b 00       	.word	0x000b	; ????
 19e:	00 22       	and	r0, r16
 1a0:	05 00       	.word	0x0005	; ????
 1a2:	31 13       	cpse	r19, r17
 1a4:	02 06       	cpc	r0, r18
 1a6:	00 00       	nop
 1a8:	23 05       	cpc	r18, r3
 1aa:	00 31       	cpi	r16, 0x10	; 16
 1ac:	13 02       	muls	r17, r19
 1ae:	0a 00       	.word	0x000a	; ????
 1b0:	00 24       	eor	r0, r0
 1b2:	34 00       	.word	0x0034	; ????
 1b4:	03 08       	sbc	r0, r3
 1b6:	3a 0b       	sbc	r19, r26
 1b8:	3b 0b       	sbc	r19, r27
 1ba:	49 13       	cpse	r20, r25
 1bc:	02 06       	cpc	r0, r18
 1be:	00 00       	nop
 1c0:	25 0b       	sbc	r18, r21
 1c2:	01 11       	cpse	r16, r1
 1c4:	01 12       	cpse	r0, r17
 1c6:	01 01       	movw	r0, r2
 1c8:	13 00       	.word	0x0013	; ????
 1ca:	00 26       	eor	r0, r16
 1cc:	05 00       	.word	0x0005	; ????
 1ce:	03 08       	sbc	r0, r3
 1d0:	3a 0b       	sbc	r19, r26
 1d2:	3b 0b       	sbc	r19, r27
 1d4:	49 13       	cpse	r20, r25
 1d6:	02 06       	cpc	r0, r18
 1d8:	00 00       	nop
 1da:	27 2e       	mov	r2, r23
 1dc:	00 3f       	cpi	r16, 0xF0	; 240
 1de:	0c 03       	fmul	r16, r20
 1e0:	0e 3a       	cpi	r16, 0xAE	; 174
 1e2:	0b 3b       	cpi	r16, 0xBB	; 187
 1e4:	0b 11       	cpse	r16, r11
 1e6:	01 12       	cpse	r0, r17
 1e8:	01 40       	sbci	r16, 0x01	; 1
 1ea:	0a 00       	.word	0x000a	; ????
 1ec:	00 28       	or	r0, r0
 1ee:	2e 01       	movw	r4, r28
 1f0:	03 0e       	add	r0, r19
 1f2:	3a 0b       	sbc	r19, r26
 1f4:	3b 0b       	sbc	r19, r27
 1f6:	27 0c       	add	r2, r7
 1f8:	49 13       	cpse	r20, r25
 1fa:	11 01       	movw	r2, r2
 1fc:	12 01       	movw	r2, r4
 1fe:	40 0a       	sbc	r4, r16
 200:	01 13       	cpse	r16, r17
 202:	00 00       	nop
 204:	29 2e       	mov	r2, r25
 206:	01 31       	cpi	r16, 0x11	; 17
 208:	13 11       	cpse	r17, r3
 20a:	01 12       	cpse	r0, r17
 20c:	01 40       	sbci	r16, 0x01	; 1
 20e:	0a 01       	movw	r0, r20
 210:	13 00       	.word	0x0013	; ????
 212:	00 2a       	or	r0, r16
 214:	34 00       	.word	0x0034	; ????
 216:	31 13       	cpse	r19, r17
 218:	02 0a       	sbc	r0, r18
 21a:	00 00       	nop
 21c:	2b 1d       	adc	r18, r11
 21e:	01 31       	cpi	r16, 0x11	; 17
 220:	13 55       	subi	r17, 0x53	; 83
 222:	06 58       	subi	r16, 0x86	; 134
 224:	0b 59       	subi	r16, 0x9B	; 155
 226:	0b 01       	movw	r0, r22
 228:	13 00       	.word	0x0013	; ????
 22a:	00 2c       	mov	r0, r0
 22c:	0b 01       	movw	r0, r22
 22e:	55 06       	cpc	r5, r21
 230:	00 00       	nop
 232:	2d 1d       	adc	r18, r13
 234:	01 31       	cpi	r16, 0x11	; 17
 236:	13 55       	subi	r17, 0x53	; 83
 238:	06 58       	subi	r16, 0x86	; 134
 23a:	0b 59       	subi	r16, 0x9B	; 155
 23c:	0b 00       	.word	0x000b	; ????
 23e:	00 2e       	mov	r0, r16
 240:	2e 01       	movw	r4, r28
 242:	3f 0c       	add	r3, r15
 244:	03 0e       	add	r0, r19
 246:	3a 0b       	sbc	r19, r26
 248:	3b 0b       	sbc	r19, r27
 24a:	27 0c       	add	r2, r7
 24c:	49 13       	cpse	r20, r25
 24e:	11 01       	movw	r2, r2
 250:	12 01       	movw	r2, r4
 252:	40 0a       	sbc	r4, r16
 254:	01 13       	cpse	r16, r17
 256:	00 00       	nop
 258:	2f 2e       	mov	r2, r31
 25a:	00 3f       	cpi	r16, 0xF0	; 240
 25c:	0c 03       	fmul	r16, r20
 25e:	0e 3a       	cpi	r16, 0xAE	; 174
 260:	0b 3b       	cpi	r16, 0xBB	; 187
 262:	0b 27       	eor	r16, r27
 264:	0c 11       	cpse	r16, r12
 266:	01 12       	cpse	r0, r17
 268:	01 40       	sbci	r16, 0x01	; 1
 26a:	0a 00       	.word	0x000a	; ????
 26c:	00 30       	cpi	r16, 0x00	; 0
 26e:	2e 01       	movw	r4, r28
 270:	3f 0c       	add	r3, r15
 272:	03 0e       	add	r0, r19
 274:	3a 0b       	sbc	r19, r26
 276:	3b 0b       	sbc	r19, r27
 278:	49 13       	cpse	r20, r25
 27a:	11 01       	movw	r2, r2
 27c:	12 01       	movw	r2, r4
 27e:	40 0a       	sbc	r4, r16
 280:	01 13       	cpse	r16, r17
 282:	00 00       	nop
 284:	31 34       	cpi	r19, 0x41	; 65
 286:	00 31       	cpi	r16, 0x10	; 16
 288:	13 02       	muls	r17, r19
 28a:	06 00       	.word	0x0006	; ????
 28c:	00 32       	cpi	r16, 0x20	; 32
 28e:	34 00       	.word	0x0034	; ????
 290:	03 08       	sbc	r0, r3
 292:	3a 0b       	sbc	r19, r26
 294:	3b 0b       	sbc	r19, r27
 296:	49 13       	cpse	r20, r25
 298:	02 0a       	sbc	r0, r18
 29a:	00 00       	nop
 29c:	33 34       	cpi	r19, 0x43	; 67
 29e:	00 03       	mulsu	r16, r16
 2a0:	0e 3a       	cpi	r16, 0xAE	; 174
 2a2:	0b 3b       	cpi	r16, 0xBB	; 187
 2a4:	0b 49       	sbci	r16, 0x9B	; 155
 2a6:	13 02       	muls	r17, r19
 2a8:	0a 00       	.word	0x000a	; ????
 2aa:	00 34       	cpi	r16, 0x40	; 64
 2ac:	01 01       	movw	r0, r2
 2ae:	49 13       	cpse	r20, r25
 2b0:	01 13       	cpse	r16, r17
 2b2:	00 00       	nop
 2b4:	35 21       	and	r19, r5
 2b6:	00 49       	sbci	r16, 0x90	; 144
 2b8:	13 2f       	mov	r17, r19
 2ba:	0b 00       	.word	0x000b	; ????
 2bc:	00 36       	cpi	r16, 0x60	; 96
 2be:	21 00       	.word	0x0021	; ????
 2c0:	00 00       	nop
 2c2:	37 34       	cpi	r19, 0x47	; 71
 2c4:	00 03       	mulsu	r16, r16
 2c6:	0e 3a       	cpi	r16, 0xAE	; 174
 2c8:	0b 3b       	cpi	r16, 0xBB	; 187
 2ca:	05 49       	sbci	r16, 0x95	; 149
 2cc:	13 3f       	cpi	r17, 0xF3	; 243
 2ce:	0c 3c       	cpi	r16, 0xCC	; 204
 2d0:	0c 00       	.word	0x000c	; ????
 2d2:	00 38       	cpi	r16, 0x80	; 128
 2d4:	34 00       	.word	0x0034	; ????
 2d6:	03 0e       	add	r0, r19
 2d8:	3a 0b       	sbc	r19, r26
 2da:	3b 0b       	sbc	r19, r27
 2dc:	49 13       	cpse	r20, r25
 2de:	3f 0c       	add	r3, r15
 2e0:	02 0a       	sbc	r0, r18
 2e2:	00 00       	nop
 2e4:	39 26       	eor	r3, r25
 2e6:	00 49       	sbci	r16, 0x90	; 144
 2e8:	13 00       	.word	0x0013	; ????
 2ea:	00 3a       	cpi	r16, 0xA0	; 160
 2ec:	35 00       	.word	0x0035	; ????
 2ee:	49 13       	cpse	r20, r25
 2f0:	00 00       	nop
	...

Disassembly of section .debug_line:

00000000 <.debug_line>:
   0:	7d 06       	cpc	r7, r29
   2:	00 00       	nop
   4:	02 00       	.word	0x0002	; ????
   6:	bc 00       	.word	0x00bc	; ????
   8:	00 00       	nop
   a:	01 01       	movw	r0, r2
   c:	f6 f5       	brtc	.+124    	; 0x8a <__SREG__+0x4b>
   e:	0a 00       	.word	0x000a	; ????
  10:	01 01       	movw	r0, r2
  12:	01 01       	movw	r0, r2
  14:	00 00       	nop
  16:	00 01       	movw	r0, r0
  18:	2e 2e       	mov	r2, r30
  1a:	00 63       	ori	r16, 0x30	; 48
  1c:	3a 2f       	mov	r19, r26
  1e:	61 76       	andi	r22, 0x61	; 97
  20:	72 67       	ori	r23, 0x72	; 114
  22:	63 63       	ori	r22, 0x33	; 51
  24:	2f 6c       	ori	r18, 0xCF	; 207
  26:	69 62       	ori	r22, 0x29	; 41
  28:	2f 67       	ori	r18, 0x7F	; 127
  2a:	63 63       	ori	r22, 0x33	; 51
  2c:	2f 2e       	mov	r2, r31
  2e:	2e 2f       	mov	r18, r30
  30:	2e 2e       	mov	r2, r30
  32:	2f 61       	ori	r18, 0x1F	; 31
  34:	76 72       	andi	r23, 0x26	; 38
  36:	2f 69       	ori	r18, 0x9F	; 159
  38:	6e 63       	ori	r22, 0x3E	; 62
  3a:	6c 75       	andi	r22, 0x5C	; 92
  3c:	64 65       	ori	r22, 0x54	; 84
  3e:	00 63       	ori	r16, 0x30	; 48
  40:	3a 2f       	mov	r19, r26
  42:	61 76       	andi	r22, 0x61	; 97
  44:	72 67       	ori	r23, 0x72	; 114
  46:	63 63       	ori	r22, 0x33	; 51
  48:	2f 6c       	ori	r18, 0xCF	; 207
  4a:	69 62       	ori	r22, 0x29	; 41
  4c:	2f 67       	ori	r18, 0x7F	; 127
  4e:	63 63       	ori	r22, 0x33	; 51
  50:	2f 2e       	mov	r2, r31
  52:	2e 2f       	mov	r18, r30
  54:	2e 2e       	mov	r2, r30
  56:	2f 61       	ori	r18, 0x1F	; 31
  58:	76 72       	andi	r23, 0x26	; 38
  5a:	2f 69       	ori	r18, 0x9F	; 159
  5c:	6e 63       	ori	r22, 0x3E	; 62
  5e:	6c 75       	andi	r22, 0x5C	; 92
  60:	64 65       	ori	r22, 0x54	; 84
  62:	2f 75       	andi	r18, 0x5F	; 95
  64:	74 69       	ori	r23, 0x94	; 148
  66:	6c 00       	.word	0x006c	; ????
  68:	00 4c       	sbci	r16, 0xC0	; 192
  6a:	43 44       	sbci	r20, 0x43	; 67
  6c:	34 2e       	mov	r3, r20
  6e:	63 00       	.word	0x0063	; ????
  70:	01 00       	.word	0x0001	; ????
  72:	00 75       	andi	r16, 0x50	; 80
  74:	74 69       	ori	r23, 0x94	; 148
  76:	6c 2f       	mov	r22, r28
  78:	64 65       	ori	r22, 0x54	; 84
  7a:	6c 61       	ori	r22, 0x1C	; 28
  7c:	79 5f       	subi	r23, 0xF9	; 249
  7e:	62 61       	ori	r22, 0x12	; 18
  80:	73 69       	ori	r23, 0x93	; 147
  82:	63 2e       	mov	r6, r19
  84:	68 00       	.word	0x0068	; ????
  86:	02 00       	.word	0x0002	; ????
  88:	00 68       	ori	r16, 0x80	; 128
  8a:	63 31       	cpi	r22, 0x13	; 19
  8c:	36 31       	cpi	r19, 0x16	; 22
  8e:	2e 63       	ori	r18, 0x3E	; 62
  90:	00 01       	movw	r0, r0
  92:	00 00       	nop
  94:	6d 61       	ori	r22, 0x1D	; 29
  96:	69 6e       	ori	r22, 0xE9	; 233
  98:	2e 63       	ori	r18, 0x3E	; 62
  9a:	00 01       	movw	r0, r0
  9c:	00 00       	nop
  9e:	75 74       	andi	r23, 0x45	; 69
  a0:	69 6c       	ori	r22, 0xC9	; 201
  a2:	2f 64       	ori	r18, 0x4F	; 79
  a4:	65 6c       	ori	r22, 0xC5	; 197
  a6:	61 79       	andi	r22, 0x91	; 145
  a8:	2e 68       	ori	r18, 0x8E	; 142
  aa:	00 02       	muls	r16, r16
  ac:	00 00       	nop
  ae:	73 74       	andi	r23, 0x43	; 67
  b0:	64 69       	ori	r22, 0x94	; 148
  b2:	6e 74       	andi	r22, 0x4E	; 78
  b4:	2e 68       	ori	r18, 0x8E	; 142
  b6:	00 02       	muls	r16, r16
  b8:	00 00       	nop
  ba:	73 74       	andi	r23, 0x43	; 67
  bc:	64 69       	ori	r22, 0x94	; 148
  be:	6f 2e       	mov	r6, r31
  c0:	68 00       	.word	0x0068	; ????
  c2:	02 00       	.word	0x0002	; ????
  c4:	00 00       	nop
  c6:	00 05       	cpc	r16, r0
  c8:	02 44       	sbci	r16, 0x42	; 66
  ca:	08 00       	.word	0x0008	; ????
  cc:	00 27       	eor	r16, r16
  ce:	00 05       	cpc	r16, r0
  d0:	02 46       	sbci	r16, 0x62	; 98
  d2:	08 00       	.word	0x0008	; ????
  d4:	00 04       	cpc	r0, r0
  d6:	02 69       	ori	r16, 0x92	; 146
  d8:	00 05       	cpc	r16, r0
  da:	02 4e       	sbci	r16, 0xE2	; 226
  dc:	08 00       	.word	0x0008	; ????
  de:	00 04       	cpc	r0, r0
  e0:	01 03       	mulsu	r16, r17
  e2:	b0 7f       	andi	r27, 0xF0	; 240
  e4:	01 00       	.word	0x0001	; ????
  e6:	05 02       	muls	r16, r21
  e8:	58 08       	sbc	r5, r8
  ea:	00 00       	nop
  ec:	15 00       	.word	0x0015	; ????
  ee:	05 02       	muls	r16, r21
  f0:	5c 08       	sbc	r5, r12
  f2:	00 00       	nop
  f4:	15 00       	.word	0x0015	; ????
  f6:	05 02       	muls	r16, r21
  f8:	60 08       	sbc	r6, r0
  fa:	00 00       	nop
  fc:	16 00       	.word	0x0016	; ????
  fe:	05 02       	muls	r16, r21
 100:	64 08       	sbc	r6, r4
 102:	00 00       	nop
 104:	15 00       	.word	0x0015	; ????
 106:	05 02       	muls	r16, r21
 108:	66 08       	sbc	r6, r6
 10a:	00 00       	nop
 10c:	04 02       	muls	r16, r20
 10e:	49 00       	.word	0x0049	; ????
 110:	05 02       	muls	r16, r21
 112:	6c 08       	sbc	r6, r12
 114:	00 00       	nop
 116:	04 01       	movw	r0, r8
 118:	03 4d       	sbci	r16, 0xD3	; 211
 11a:	01 00       	.word	0x0001	; ????
 11c:	05 02       	muls	r16, r21
 11e:	6e 08       	sbc	r6, r14
 120:	00 00       	nop
 122:	04 02       	muls	r16, r20
 124:	5d 00       	.word	0x005d	; ????
 126:	05 02       	muls	r16, r21
 128:	76 08       	sbc	r7, r6
 12a:	00 00       	nop
 12c:	04 01       	movw	r0, r8
 12e:	03 bb       	out	0x13, r16	; 19
 130:	7f 01       	movw	r14, r30
 132:	00 05       	cpc	r16, r0
 134:	02 7a       	andi	r16, 0xA2	; 162
 136:	08 00       	.word	0x0008	; ????
 138:	00 15       	cp	r16, r0
 13a:	00 05       	cpc	r16, r0
 13c:	02 7e       	andi	r16, 0xE2	; 226
 13e:	08 00       	.word	0x0008	; ????
 140:	00 15       	cp	r16, r0
 142:	00 05       	cpc	r16, r0
 144:	02 84       	ldd	r0, Z+10	; 0x0a
 146:	08 00       	.word	0x0008	; ????
 148:	00 16       	cp	r0, r16
 14a:	00 05       	cpc	r16, r0
 14c:	02 86       	std	Z+10, r0	; 0x0a
 14e:	08 00       	.word	0x0008	; ????
 150:	00 15       	cp	r16, r0
 152:	00 05       	cpc	r16, r0
 154:	02 88       	ldd	r0, Z+18	; 0x12
 156:	08 00       	.word	0x0008	; ????
 158:	00 04       	cpc	r0, r0
 15a:	02 3e       	cpi	r16, 0xE2	; 226
 15c:	00 05       	cpc	r16, r0
 15e:	02 8e       	std	Z+26, r0	; 0x1a
 160:	08 00       	.word	0x0008	; ????
 162:	00 04       	cpc	r0, r0
 164:	01 03       	mulsu	r16, r17
 166:	58 01       	movw	r10, r16
 168:	00 05       	cpc	r16, r0
 16a:	02 90       	ld	r0, -Z
 16c:	08 00       	.word	0x0008	; ????
 16e:	00 15       	cp	r16, r0
 170:	00 05       	cpc	r16, r0
 172:	02 92       	st	-Z, r0
 174:	08 00       	.word	0x0008	; ????
 176:	00 2d       	mov	r16, r0
 178:	00 05       	cpc	r16, r0
 17a:	02 9a       	sbi	0x00, 2	; 0
 17c:	08 00       	.word	0x0008	; ????
 17e:	00 01       	movw	r0, r0
 180:	00 05       	cpc	r16, r0
 182:	02 9e       	mul	r0, r18
 184:	08 00       	.word	0x0008	; ????
 186:	00 17       	cp	r16, r16
 188:	00 05       	cpc	r16, r0
 18a:	02 a4       	ldd	r0, Z+42	; 0x2a
 18c:	08 00       	.word	0x0008	; ????
 18e:	00 13       	cpse	r16, r16
 190:	00 05       	cpc	r16, r0
 192:	02 b0       	in	r0, 0x02	; 2
 194:	08 00       	.word	0x0008	; ????
 196:	00 16       	cp	r0, r16
 198:	00 05       	cpc	r16, r0
 19a:	02 b8       	out	0x02, r0	; 2
 19c:	08 00       	.word	0x0008	; ????
 19e:	00 22       	and	r0, r16
 1a0:	00 05       	cpc	r16, r0
 1a2:	02 b8       	out	0x02, r0	; 2
 1a4:	08 00       	.word	0x0008	; ????
 1a6:	00 15       	cp	r16, r0
 1a8:	00 05       	cpc	r16, r0
 1aa:	02 bc       	out	0x22, r0	; 34
 1ac:	08 00       	.word	0x0008	; ????
 1ae:	00 15       	cp	r16, r0
 1b0:	00 05       	cpc	r16, r0
 1b2:	02 c2       	rjmp	.+1028   	; 0x5b8 <__stack+0x159>
 1b4:	08 00       	.word	0x0008	; ????
 1b6:	00 15       	cp	r16, r0
 1b8:	00 05       	cpc	r16, r0
 1ba:	02 c6       	rjmp	.+3076   	; 0xdc0 <__ftoa_engine+0x14e>
 1bc:	08 00       	.word	0x0008	; ????
 1be:	00 15       	cp	r16, r0
 1c0:	00 05       	cpc	r16, r0
 1c2:	02 ce       	rjmp	.-1020   	; 0xfffffdc8 <__eeprom_end+0xff7efdc8>
 1c4:	08 00       	.word	0x0008	; ????
 1c6:	00 19       	sub	r16, r0
 1c8:	00 05       	cpc	r16, r0
 1ca:	02 ce       	rjmp	.-1020   	; 0xfffffdd0 <__eeprom_end+0xff7efdd0>
 1cc:	08 00       	.word	0x0008	; ????
 1ce:	00 15       	cp	r16, r0
 1d0:	00 05       	cpc	r16, r0
 1d2:	02 d4       	rcall	.+2052   	; 0x9d8 <__vector_9+0x14>
 1d4:	08 00       	.word	0x0008	; ????
 1d6:	00 15       	cp	r16, r0
 1d8:	00 05       	cpc	r16, r0
 1da:	02 da       	rcall	.-3068   	; 0xfffff5e0 <__eeprom_end+0xff7ef5e0>
 1dc:	08 00       	.word	0x0008	; ????
 1de:	00 15       	cp	r16, r0
 1e0:	00 05       	cpc	r16, r0
 1e2:	02 e0       	ldi	r16, 0x02	; 2
 1e4:	08 00       	.word	0x0008	; ????
 1e6:	00 15       	cp	r16, r0
 1e8:	00 05       	cpc	r16, r0
 1ea:	02 e6       	ldi	r16, 0x62	; 98
 1ec:	08 00       	.word	0x0008	; ????
 1ee:	00 15       	cp	r16, r0
 1f0:	00 05       	cpc	r16, r0
 1f2:	02 ec       	ldi	r16, 0xC2	; 194
 1f4:	08 00       	.word	0x0008	; ????
 1f6:	00 15       	cp	r16, r0
 1f8:	00 05       	cpc	r16, r0
 1fa:	02 f2       	brmi	.-128    	; 0x17c <vfprintf+0xc>
 1fc:	08 00       	.word	0x0008	; ????
 1fe:	00 15       	cp	r16, r0
 200:	00 05       	cpc	r16, r0
 202:	02 f8       	bld	r0, 2
 204:	08 00       	.word	0x0008	; ????
 206:	00 15       	cp	r16, r0
 208:	00 05       	cpc	r16, r0
 20a:	02 fe       	sbrs	r0, 2
 20c:	08 00       	.word	0x0008	; ????
 20e:	00 16       	cp	r0, r16
 210:	00 05       	cpc	r16, r0
 212:	02 04       	cpc	r0, r2
 214:	09 00       	.word	0x0009	; ????
 216:	00 15       	cp	r16, r0
 218:	00 05       	cpc	r16, r0
 21a:	02 0a       	sbc	r0, r18
 21c:	09 00       	.word	0x0009	; ????
 21e:	00 15       	cp	r16, r0
 220:	00 05       	cpc	r16, r0
 222:	02 10       	cpse	r0, r2
 224:	09 00       	.word	0x0009	; ????
 226:	00 15       	cp	r16, r0
 228:	00 05       	cpc	r16, r0
 22a:	02 16       	cp	r0, r18
 22c:	09 00       	.word	0x0009	; ????
 22e:	00 15       	cp	r16, r0
 230:	00 05       	cpc	r16, r0
 232:	02 1c       	adc	r0, r2
 234:	09 00       	.word	0x0009	; ????
 236:	00 15       	cp	r16, r0
 238:	00 05       	cpc	r16, r0
 23a:	02 22       	and	r0, r18
 23c:	09 00       	.word	0x0009	; ????
 23e:	00 15       	cp	r16, r0
 240:	00 05       	cpc	r16, r0
 242:	02 28       	or	r0, r2
 244:	09 00       	.word	0x0009	; ????
 246:	00 15       	cp	r16, r0
 248:	00 05       	cpc	r16, r0
 24a:	02 2e       	mov	r0, r18
 24c:	09 00       	.word	0x0009	; ????
 24e:	00 16       	cp	r0, r16
 250:	00 05       	cpc	r16, r0
 252:	02 34       	cpi	r16, 0x42	; 66
 254:	09 00       	.word	0x0009	; ????
 256:	00 15       	cp	r16, r0
 258:	00 05       	cpc	r16, r0
 25a:	02 3a       	cpi	r16, 0xA2	; 162
 25c:	09 00       	.word	0x0009	; ????
 25e:	00 15       	cp	r16, r0
 260:	00 05       	cpc	r16, r0
 262:	02 40       	sbci	r16, 0x02	; 2
 264:	09 00       	.word	0x0009	; ????
 266:	00 15       	cp	r16, r0
 268:	00 05       	cpc	r16, r0
 26a:	02 46       	sbci	r16, 0x62	; 98
 26c:	09 00       	.word	0x0009	; ????
 26e:	00 15       	cp	r16, r0
 270:	00 05       	cpc	r16, r0
 272:	02 4c       	sbci	r16, 0xC2	; 194
 274:	09 00       	.word	0x0009	; ????
 276:	00 15       	cp	r16, r0
 278:	00 05       	cpc	r16, r0
 27a:	02 52       	subi	r16, 0x22	; 34
 27c:	09 00       	.word	0x0009	; ????
 27e:	00 15       	cp	r16, r0
 280:	00 05       	cpc	r16, r0
 282:	02 58       	subi	r16, 0x82	; 130
 284:	09 00       	.word	0x0009	; ????
 286:	00 15       	cp	r16, r0
 288:	00 05       	cpc	r16, r0
 28a:	02 5e       	subi	r16, 0xE2	; 226
 28c:	09 00       	.word	0x0009	; ????
 28e:	00 15       	cp	r16, r0
 290:	00 05       	cpc	r16, r0
 292:	02 60       	ori	r16, 0x02	; 2
 294:	09 00       	.word	0x0009	; ????
 296:	00 18       	sub	r0, r0
 298:	00 05       	cpc	r16, r0
 29a:	02 60       	ori	r16, 0x02	; 2
 29c:	09 00       	.word	0x0009	; ????
 29e:	00 15       	cp	r16, r0
 2a0:	00 05       	cpc	r16, r0
 2a2:	02 64       	ori	r16, 0x42	; 66
 2a4:	09 00       	.word	0x0009	; ????
 2a6:	00 15       	cp	r16, r0
 2a8:	00 05       	cpc	r16, r0
 2aa:	02 6a       	ori	r16, 0xA2	; 162
 2ac:	09 00       	.word	0x0009	; ????
 2ae:	00 16       	cp	r0, r16
 2b0:	00 05       	cpc	r16, r0
 2b2:	02 6e       	ori	r16, 0xE2	; 226
 2b4:	09 00       	.word	0x0009	; ????
 2b6:	00 16       	cp	r0, r16
 2b8:	00 05       	cpc	r16, r0
 2ba:	02 74       	andi	r16, 0x42	; 66
 2bc:	09 00       	.word	0x0009	; ????
 2be:	00 04       	cpc	r0, r0
 2c0:	03 03       	mulsu	r16, r19
 2c2:	fd 7e       	andi	r31, 0xED	; 237
 2c4:	01 00       	.word	0x0001	; ????
 2c6:	05 02       	muls	r16, r21
 2c8:	74 09       	sbc	r23, r4
 2ca:	00 00       	nop
 2cc:	15 00       	.word	0x0015	; ????
 2ce:	05 02       	muls	r16, r21
 2d0:	76 09       	sbc	r23, r6
 2d2:	00 00       	nop
 2d4:	04 02       	muls	r16, r20
 2d6:	7a 00       	.word	0x007a	; ????
 2d8:	05 02       	muls	r16, r21
 2da:	80 09       	sbc	r24, r0
 2dc:	00 00       	nop
 2de:	04 03       	mulsu	r16, r20
 2e0:	03 9c       	mul	r0, r3
 2e2:	7f 01       	movw	r14, r30
 2e4:	00 05       	cpc	r16, r0
 2e6:	02 82       	std	Z+2, r0	; 0x02
 2e8:	09 00       	.word	0x0009	; ????
 2ea:	00 04       	cpc	r0, r0
 2ec:	02 78       	andi	r16, 0x82	; 130
 2ee:	00 05       	cpc	r16, r0
 2f0:	02 86       	std	Z+10, r0	; 0x0a
 2f2:	09 00       	.word	0x0009	; ????
 2f4:	00 04       	cpc	r0, r0
 2f6:	03 03       	mulsu	r16, r19
 2f8:	9e 7f       	andi	r25, 0xFE	; 254
 2fa:	01 00       	.word	0x0001	; ????
 2fc:	05 02       	muls	r16, r21
 2fe:	88 09       	sbc	r24, r8
 300:	00 00       	nop
 302:	1f 00       	.word	0x001f	; ????
 304:	05 02       	muls	r16, r21
 306:	88 09       	sbc	r24, r8
 308:	00 00       	nop
 30a:	01 00       	.word	0x0001	; ????
 30c:	05 02       	muls	r16, r21
 30e:	8c 09       	sbc	r24, r12
 310:	00 00       	nop
 312:	04 02       	muls	r16, r20
 314:	6b 00       	.word	0x006b	; ????
 316:	05 02       	muls	r16, r21
 318:	92 09       	sbc	r25, r2
 31a:	00 00       	nop
 31c:	04 03       	mulsu	r16, r20
 31e:	03 ac       	ldd	r0, Z+59	; 0x3b
 320:	7f 01       	movw	r14, r30
 322:	00 05       	cpc	r16, r0
 324:	02 94       	swap	r0
 326:	09 00       	.word	0x0009	; ????
 328:	00 04       	cpc	r0, r0
 32a:	02 68       	ori	r16, 0x82	; 130
 32c:	00 05       	cpc	r16, r0
 32e:	02 9a       	sbi	0x00, 2	; 0
 330:	09 00       	.word	0x0009	; ????
 332:	00 04       	cpc	r0, r0
 334:	03 03       	mulsu	r16, r19
 336:	ae 7f       	andi	r26, 0xFE	; 254
 338:	01 00       	.word	0x0001	; ????
 33a:	05 02       	muls	r16, r21
 33c:	9c 09       	sbc	r25, r12
 33e:	00 00       	nop
 340:	04 02       	muls	r16, r20
 342:	66 00       	.word	0x0066	; ????
 344:	05 02       	muls	r16, r21
 346:	a2 09       	sbc	r26, r2
 348:	00 00       	nop
 34a:	04 03       	mulsu	r16, r20
 34c:	03 aa       	std	Z+51, r0	; 0x33
 34e:	7f 01       	movw	r14, r30
 350:	00 05       	cpc	r16, r0
 352:	02 ac       	ldd	r0, Z+58	; 0x3a
 354:	09 00       	.word	0x0009	; ????
 356:	00 1b       	sub	r16, r16
 358:	00 05       	cpc	r16, r0
 35a:	02 ae       	std	Z+58, r0	; 0x3a
 35c:	09 00       	.word	0x0009	; ????
 35e:	00 17       	cp	r16, r16
 360:	00 05       	cpc	r16, r0
 362:	02 ae       	std	Z+58, r0	; 0x3a
 364:	09 00       	.word	0x0009	; ????
 366:	00 16       	cp	r0, r16
 368:	00 05       	cpc	r16, r0
 36a:	02 b6       	in	r0, 0x32	; 50
 36c:	09 00       	.word	0x0009	; ????
 36e:	00 16       	cp	r0, r16
 370:	00 05       	cpc	r16, r0
 372:	02 b8       	out	0x02, r0	; 2
 374:	09 00       	.word	0x0009	; ????
 376:	00 15       	cp	r16, r0
 378:	00 05       	cpc	r16, r0
 37a:	02 ba       	out	0x12, r0	; 18
 37c:	09 00       	.word	0x0009	; ????
 37e:	00 15       	cp	r16, r0
 380:	00 05       	cpc	r16, r0
 382:	02 bc       	out	0x22, r0	; 34
 384:	09 00       	.word	0x0009	; ????
 386:	00 15       	cp	r16, r0
 388:	00 05       	cpc	r16, r0
 38a:	02 be       	out	0x32, r0	; 50
 38c:	09 00       	.word	0x0009	; ????
 38e:	00 15       	cp	r16, r0
 390:	00 05       	cpc	r16, r0
 392:	02 c0       	rjmp	.+4      	; 0x398 <vfprintf+0x228>
 394:	09 00       	.word	0x0009	; ????
 396:	00 15       	cp	r16, r0
 398:	00 05       	cpc	r16, r0
 39a:	02 c2       	rjmp	.+1028   	; 0x7a0 <__stack+0x341>
 39c:	09 00       	.word	0x0009	; ????
 39e:	00 16       	cp	r0, r16
 3a0:	00 05       	cpc	r16, r0
 3a2:	02 c4       	rjmp	.+2052   	; 0xba8 <main+0x15e>
 3a4:	09 00       	.word	0x0009	; ????
 3a6:	00 04       	cpc	r0, r0
 3a8:	04 17       	cp	r16, r20
 3aa:	00 05       	cpc	r16, r0
 3ac:	02 d6       	rcall	.+3076   	; 0xfb2 <__ultoa_invert+0x84>
 3ae:	09 00       	.word	0x0009	; ????
 3b0:	00 15       	cp	r16, r0
 3b2:	00 05       	cpc	r16, r0
 3b4:	02 fc       	sbrc	r0, 2
 3b6:	09 00       	.word	0x0009	; ????
 3b8:	00 15       	cp	r16, r0
 3ba:	00 05       	cpc	r16, r0
 3bc:	02 0e       	add	r0, r18
 3be:	0a 00       	.word	0x000a	; ????
 3c0:	00 17       	cp	r16, r16
 3c2:	00 05       	cpc	r16, r0
 3c4:	02 1a       	sub	r0, r18
 3c6:	0a 00       	.word	0x000a	; ????
 3c8:	00 15       	cp	r16, r0
 3ca:	00 05       	cpc	r16, r0
 3cc:	02 20       	and	r0, r2
 3ce:	0a 00       	.word	0x000a	; ????
 3d0:	00 15       	cp	r16, r0
 3d2:	00 05       	cpc	r16, r0
 3d4:	02 2c       	mov	r0, r2
 3d6:	0a 00       	.word	0x000a	; ????
 3d8:	00 17       	cp	r16, r16
 3da:	00 05       	cpc	r16, r0
 3dc:	02 38       	cpi	r16, 0x82	; 130
 3de:	0a 00       	.word	0x000a	; ????
 3e0:	00 15       	cp	r16, r0
 3e2:	00 05       	cpc	r16, r0
 3e4:	02 3e       	cpi	r16, 0xE2	; 226
 3e6:	0a 00       	.word	0x000a	; ????
 3e8:	00 15       	cp	r16, r0
 3ea:	00 05       	cpc	r16, r0
 3ec:	02 4a       	sbci	r16, 0xA2	; 162
 3ee:	0a 00       	.word	0x000a	; ????
 3f0:	00 1b       	sub	r16, r16
 3f2:	00 05       	cpc	r16, r0
 3f4:	02 5e       	subi	r16, 0xE2	; 226
 3f6:	0a 00       	.word	0x000a	; ????
 3f8:	00 16       	cp	r0, r16
 3fa:	00 05       	cpc	r16, r0
 3fc:	02 62       	ori	r16, 0x22	; 34
 3fe:	0a 00       	.word	0x000a	; ????
 400:	00 15       	cp	r16, r0
 402:	00 05       	cpc	r16, r0
 404:	02 68       	ori	r16, 0x82	; 130
 406:	0a 00       	.word	0x000a	; ????
 408:	00 17       	cp	r16, r16
 40a:	00 05       	cpc	r16, r0
 40c:	02 72       	andi	r16, 0x22	; 34
 40e:	0a 00       	.word	0x000a	; ????
 410:	00 04       	cpc	r0, r0
 412:	02 39       	cpi	r16, 0x92	; 146
 414:	00 05       	cpc	r16, r0
 416:	02 7c       	andi	r16, 0xC2	; 194
 418:	0a 00       	.word	0x000a	; ????
 41a:	00 04       	cpc	r0, r0
 41c:	05 27       	eor	r16, r21
 41e:	00 05       	cpc	r16, r0
 420:	02 7e       	andi	r16, 0xE2	; 226
 422:	0a 00       	.word	0x000a	; ????
 424:	00 10       	cpse	r0, r0
 426:	00 05       	cpc	r16, r0
 428:	02 80       	ldd	r0, Z+2	; 0x02
 42a:	0a 00       	.word	0x000a	; ????
 42c:	00 04       	cpc	r0, r0
 42e:	01 03       	mulsu	r16, r17
 430:	b9 7f       	andi	r27, 0xF9	; 249
 432:	01 00       	.word	0x0001	; ????
 434:	05 02       	muls	r16, r21
 436:	88 0a       	sbc	r8, r24
 438:	00 00       	nop
 43a:	04 02       	muls	r16, r20
 43c:	4c 00       	.word	0x004c	; ????
 43e:	05 02       	muls	r16, r21
 440:	92 0a       	sbc	r9, r18
 442:	00 00       	nop
 444:	04 05       	cpc	r16, r4
 446:	27 00       	.word	0x0027	; ????
 448:	05 02       	muls	r16, r21
 44a:	96 0a       	sbc	r9, r22
 44c:	00 00       	nop
 44e:	10 00       	.word	0x0010	; ????
 450:	05 02       	muls	r16, r21
 452:	98 0a       	sbc	r9, r24
 454:	00 00       	nop
 456:	04 01       	movw	r0, r8
 458:	03 bc       	out	0x23, r0	; 35
 45a:	7f 01       	movw	r14, r30
 45c:	00 05       	cpc	r16, r0
 45e:	02 9c       	mul	r0, r2
 460:	0a 00       	.word	0x000a	; ????
 462:	00 04       	cpc	r0, r0
 464:	02 49       	sbci	r16, 0x92	; 146
 466:	00 05       	cpc	r16, r0
 468:	02 a4       	ldd	r0, Z+42	; 0x2a
 46a:	0a 00       	.word	0x000a	; ????
 46c:	00 04       	cpc	r0, r0
 46e:	01 03       	mulsu	r16, r17
 470:	4d 01       	movw	r8, r26
 472:	00 05       	cpc	r16, r0
 474:	02 aa       	std	Z+50, r0	; 0x32
 476:	0a 00       	.word	0x000a	; ????
 478:	00 04       	cpc	r0, r0
 47a:	02 47       	sbci	r16, 0x72	; 114
 47c:	00 05       	cpc	r16, r0
 47e:	02 b4       	in	r0, 0x22	; 34
 480:	0a 00       	.word	0x000a	; ????
 482:	00 04       	cpc	r0, r0
 484:	05 27       	eor	r16, r21
 486:	00 05       	cpc	r16, r0
 488:	02 b6       	in	r0, 0x32	; 50
 48a:	0a 00       	.word	0x000a	; ????
 48c:	00 10       	cpse	r0, r0
 48e:	00 05       	cpc	r16, r0
 490:	02 b8       	out	0x02, r0	; 2
 492:	0a 00       	.word	0x000a	; ????
 494:	00 04       	cpc	r0, r0
 496:	01 03       	mulsu	r16, r17
 498:	41 01       	movw	r8, r2
 49a:	00 05       	cpc	r16, r0
 49c:	02 be       	out	0x32, r0	; 50
 49e:	0a 00       	.word	0x000a	; ????
 4a0:	00 15       	cp	r16, r0
 4a2:	00 05       	cpc	r16, r0
 4a4:	02 c4       	rjmp	.+2052   	; 0xcaa <__ftoa_engine+0x38>
 4a6:	0a 00       	.word	0x000a	; ????
 4a8:	00 15       	cp	r16, r0
 4aa:	00 05       	cpc	r16, r0
 4ac:	02 ca       	rjmp	.-3068   	; 0xfffff8b2 <__eeprom_end+0xff7ef8b2>
 4ae:	0a 00       	.word	0x000a	; ????
 4b0:	00 15       	cp	r16, r0
 4b2:	00 05       	cpc	r16, r0
 4b4:	02 d0       	rcall	.+4      	; 0x4ba <__stack+0x5b>
 4b6:	0a 00       	.word	0x000a	; ????
 4b8:	00 15       	cp	r16, r0
 4ba:	00 05       	cpc	r16, r0
 4bc:	02 d6       	rcall	.+3076   	; 0x10c2 <_etext+0x2>
 4be:	0a 00       	.word	0x000a	; ????
 4c0:	00 15       	cp	r16, r0
 4c2:	00 05       	cpc	r16, r0
 4c4:	02 dc       	rcall	.-2044   	; 0xfffffcca <__eeprom_end+0xff7efcca>
 4c6:	0a 00       	.word	0x000a	; ????
 4c8:	00 04       	cpc	r0, r0
 4ca:	04 20       	and	r0, r4
 4cc:	00 05       	cpc	r16, r0
 4ce:	02 e8       	ldi	r16, 0x82	; 130
 4d0:	0a 00       	.word	0x000a	; ????
 4d2:	00 15       	cp	r16, r0
 4d4:	00 05       	cpc	r16, r0
 4d6:	02 ee       	ldi	r16, 0xE2	; 226
 4d8:	0a 00       	.word	0x000a	; ????
 4da:	00 17       	cp	r16, r16
 4dc:	00 05       	cpc	r16, r0
 4de:	02 f2       	brmi	.-128    	; 0x460 <__stack+0x1>
 4e0:	0a 00       	.word	0x000a	; ????
 4e2:	00 15       	cp	r16, r0
 4e4:	00 05       	cpc	r16, r0
 4e6:	02 f6       	brpl	.-128    	; 0x468 <__stack+0x9>
 4e8:	0a 00       	.word	0x000a	; ????
 4ea:	00 15       	cp	r16, r0
 4ec:	00 05       	cpc	r16, r0
 4ee:	02 fe       	sbrs	r0, 2
 4f0:	0a 00       	.word	0x000a	; ????
 4f2:	00 1a       	sub	r0, r16
 4f4:	00 05       	cpc	r16, r0
 4f6:	02 02       	muls	r16, r18
 4f8:	0b 00       	.word	0x000b	; ????
 4fa:	00 15       	cp	r16, r0
 4fc:	00 05       	cpc	r16, r0
 4fe:	02 06       	cpc	r0, r18
 500:	0b 00       	.word	0x000b	; ????
 502:	00 17       	cp	r16, r16
 504:	00 05       	cpc	r16, r0
 506:	02 0c       	add	r0, r2
 508:	0b 00       	.word	0x000b	; ????
 50a:	00 15       	cp	r16, r0
 50c:	00 05       	cpc	r16, r0
 50e:	02 12       	cpse	r0, r18
 510:	0b 00       	.word	0x000b	; ????
 512:	00 19       	sub	r16, r0
 514:	00 05       	cpc	r16, r0
 516:	02 40       	sbci	r16, 0x02	; 2
 518:	0b 00       	.word	0x000b	; ????
 51a:	00 04       	cpc	r0, r0
 51c:	02 1d       	adc	r16, r2
 51e:	00 05       	cpc	r16, r0
 520:	02 4c       	sbci	r16, 0xC2	; 194
 522:	0b 00       	.word	0x000b	; ????
 524:	00 04       	cpc	r0, r0
 526:	04 1e       	adc	r0, r20
 528:	00 05       	cpc	r16, r0
 52a:	02 54       	subi	r16, 0x42	; 66
 52c:	0b 00       	.word	0x000b	; ????
 52e:	00 15       	cp	r16, r0
 530:	00 05       	cpc	r16, r0
 532:	02 5e       	subi	r16, 0xE2	; 226
 534:	0b 00       	.word	0x000b	; ????
 536:	00 04       	cpc	r0, r0
 538:	02 03       	mulsu	r16, r18
 53a:	75 01       	movw	r14, r10
 53c:	00 05       	cpc	r16, r0
 53e:	02 64       	ori	r16, 0x42	; 66
 540:	0b 00       	.word	0x000b	; ????
 542:	00 04       	cpc	r0, r0
 544:	05 27       	eor	r16, r21
 546:	00 05       	cpc	r16, r0
 548:	02 66       	ori	r16, 0x62	; 98
 54a:	0b 00       	.word	0x000b	; ????
 54c:	00 10       	cpse	r0, r0
 54e:	00 05       	cpc	r16, r0
 550:	02 68       	ori	r16, 0x82	; 130
 552:	0b 00       	.word	0x000b	; ????
 554:	00 04       	cpc	r0, r0
 556:	03 03       	mulsu	r16, r19
 558:	8b 7f       	andi	r24, 0xFB	; 251
 55a:	01 00       	.word	0x0001	; ????
 55c:	05 02       	muls	r16, r21
 55e:	6a 0b       	sbc	r22, r26
 560:	00 00       	nop
 562:	04 02       	muls	r16, r20
 564:	7a 00       	.word	0x007a	; ????
 566:	05 02       	muls	r16, r21
 568:	70 0b       	sbc	r23, r16
 56a:	00 00       	nop
 56c:	04 03       	mulsu	r16, r20
 56e:	03 9c       	mul	r0, r3
 570:	7f 01       	movw	r14, r30
 572:	00 05       	cpc	r16, r0
 574:	02 72       	andi	r16, 0x22	; 34
 576:	0b 00       	.word	0x000b	; ????
 578:	00 04       	cpc	r0, r0
 57a:	02 78       	andi	r16, 0x82	; 130
 57c:	00 05       	cpc	r16, r0
 57e:	02 82       	std	Z+2, r0	; 0x02
 580:	0b 00       	.word	0x000b	; ????
 582:	00 04       	cpc	r0, r0
 584:	05 27       	eor	r16, r21
 586:	00 05       	cpc	r16, r0
 588:	02 84       	ldd	r0, Z+10	; 0x0a
 58a:	0b 00       	.word	0x000b	; ????
 58c:	00 10       	cpse	r0, r0
 58e:	00 05       	cpc	r16, r0
 590:	02 8c       	ldd	r0, Z+26	; 0x1a
 592:	0b 00       	.word	0x000b	; ????
 594:	00 04       	cpc	r0, r0
 596:	03 03       	mulsu	r16, r19
 598:	9d 7f       	andi	r25, 0xFD	; 253
 59a:	01 00       	.word	0x0001	; ????
 59c:	05 02       	muls	r16, r21
 59e:	8e 0b       	sbc	r24, r30
 5a0:	00 00       	nop
 5a2:	04 02       	muls	r16, r20
 5a4:	68 00       	.word	0x0068	; ????
 5a6:	05 02       	muls	r16, r21
 5a8:	94 0b       	sbc	r25, r20
 5aa:	00 00       	nop
 5ac:	04 03       	mulsu	r16, r20
 5ae:	03 ae       	std	Z+59, r0	; 0x3b
 5b0:	7f 01       	movw	r14, r30
 5b2:	00 05       	cpc	r16, r0
 5b4:	02 96       	adiw	r24, 0x02	; 2
 5b6:	0b 00       	.word	0x000b	; ????
 5b8:	00 04       	cpc	r0, r0
 5ba:	02 66       	ori	r16, 0x62	; 98
 5bc:	00 05       	cpc	r16, r0
 5be:	02 9c       	mul	r0, r2
 5c0:	0b 00       	.word	0x000b	; ????
 5c2:	00 04       	cpc	r0, r0
 5c4:	03 03       	mulsu	r16, r19
 5c6:	aa 7f       	andi	r26, 0xFA	; 250
 5c8:	01 00       	.word	0x0001	; ????
 5ca:	05 02       	muls	r16, r21
 5cc:	aa 0b       	sbc	r26, r26
 5ce:	00 00       	nop
 5d0:	04 02       	muls	r16, r20
 5d2:	6a 00       	.word	0x006a	; ????
 5d4:	05 02       	muls	r16, r21
 5d6:	b0 0b       	sbc	r27, r16
 5d8:	00 00       	nop
 5da:	04 05       	cpc	r16, r4
 5dc:	27 00       	.word	0x0027	; ????
 5de:	05 02       	muls	r16, r21
 5e0:	b2 0b       	sbc	r27, r18
 5e2:	00 00       	nop
 5e4:	10 00       	.word	0x0010	; ????
 5e6:	05 02       	muls	r16, r21
 5e8:	b4 0b       	sbc	r27, r20
 5ea:	00 00       	nop
 5ec:	04 04       	cpc	r0, r4
 5ee:	0e 00       	.word	0x000e	; ????
 5f0:	05 02       	muls	r16, r21
 5f2:	ba 0b       	sbc	r27, r26
 5f4:	00 00       	nop
 5f6:	15 00       	.word	0x0015	; ????
 5f8:	05 02       	muls	r16, r21
 5fa:	cc 0b       	sbc	r28, r28
 5fc:	00 00       	nop
 5fe:	15 00       	.word	0x0015	; ????
 600:	05 02       	muls	r16, r21
 602:	f2 0b       	sbc	r31, r18
 604:	00 00       	nop
 606:	0a 00       	.word	0x000a	; ????
 608:	05 02       	muls	r16, r21
 60a:	0c 0c       	add	r0, r12
 60c:	00 00       	nop
 60e:	04 03       	mulsu	r16, r20
 610:	03 a1       	ldd	r16, Z+35	; 0x23
 612:	7f 01       	movw	r14, r30
 614:	00 05       	cpc	r16, r0
 616:	02 0c       	add	r0, r2
 618:	0c 00       	.word	0x000c	; ????
 61a:	00 15       	cp	r16, r0
 61c:	00 05       	cpc	r16, r0
 61e:	02 12       	cpse	r0, r18
 620:	0c 00       	.word	0x000c	; ????
 622:	00 15       	cp	r16, r0
 624:	00 05       	cpc	r16, r0
 626:	02 38       	cpi	r16, 0x82	; 130
 628:	0c 00       	.word	0x000c	; ????
 62a:	00 04       	cpc	r0, r0
 62c:	02 70       	andi	r16, 0x02	; 2
 62e:	00 05       	cpc	r16, r0
 630:	02 42       	sbci	r16, 0x22	; 34
 632:	0c 00       	.word	0x000c	; ????
 634:	00 04       	cpc	r0, r0
 636:	05 27       	eor	r16, r21
 638:	00 05       	cpc	r16, r0
 63a:	02 46       	sbci	r16, 0x62	; 98
 63c:	0c 00       	.word	0x000c	; ????
 63e:	00 10       	cpse	r0, r0
 640:	00 05       	cpc	r16, r0
 642:	02 48       	sbci	r16, 0x82	; 130
 644:	0c 00       	.word	0x000c	; ????
 646:	00 04       	cpc	r0, r0
 648:	03 03       	mulsu	r16, r19
 64a:	97 7f       	andi	r25, 0xF7	; 247
 64c:	01 00       	.word	0x0001	; ????
 64e:	05 02       	muls	r16, r21
 650:	4a 0c       	add	r4, r10
 652:	00 00       	nop
 654:	04 01       	movw	r0, r8
 656:	52 00       	.word	0x0052	; ????
 658:	05 02       	muls	r16, r21
 65a:	4c 0c       	add	r4, r12
 65c:	00 00       	nop
 65e:	16 00       	.word	0x0016	; ????
 660:	05 02       	muls	r16, r21
 662:	5a 0c       	add	r5, r10
 664:	00 00       	nop
 666:	17 00       	.word	0x0017	; ????
 668:	05 02       	muls	r16, r21
 66a:	60 0c       	add	r6, r0
 66c:	00 00       	nop
 66e:	13 00       	.word	0x0013	; ????
 670:	05 02       	muls	r16, r21
 672:	6e 0c       	add	r6, r14
 674:	00 00       	nop
 676:	16 00       	.word	0x0016	; ????
 678:	05 02       	muls	r16, r21
 67a:	72 0c       	add	r7, r2
 67c:	00 00       	nop
 67e:	00 01       	movw	r0, r0
 680:	01 19       	sub	r16, r1
 682:	00 00       	nop
 684:	00 02       	muls	r16, r16
 686:	00 13       	cpse	r16, r16
 688:	00 00       	nop
 68a:	00 01       	movw	r0, r0
 68c:	01 fb       	bst	r16, 1
 68e:	0e 0d       	add	r16, r14
 690:	00 01       	movw	r0, r0
 692:	01 01       	movw	r0, r2
 694:	01 00       	.word	0x0001	; ????
 696:	00 00       	nop
 698:	01 00       	.word	0x0001	; ????
 69a:	00 01       	movw	r0, r0
	...

Disassembly of section .debug_frame:

00000000 <.debug_frame>:
   0:	0c 00       	.word	0x000c	; ????
   2:	00 00       	nop
   4:	ff ff       	.word	0xffff	; ????
   6:	ff ff       	.word	0xffff	; ????
   8:	01 00       	.word	0x0001	; ????
   a:	01 7f       	andi	r16, 0xF1	; 241
   c:	24 0c       	add	r2, r4
   e:	20 00       	.word	0x0020	; ????
  10:	0c 00       	.word	0x000c	; ????
  12:	00 00       	nop
  14:	00 00       	nop
  16:	00 00       	nop
  18:	44 08       	sbc	r4, r4
  1a:	00 00       	nop
  1c:	4e 00       	.word	0x004e	; ????
  1e:	00 00       	nop
  20:	0c 00       	.word	0x000c	; ????
  22:	00 00       	nop
  24:	00 00       	nop
  26:	00 00       	nop
  28:	92 08       	sbc	r9, r2
  2a:	00 00       	nop
  2c:	26 00       	.word	0x0026	; ????
  2e:	00 00       	nop
  30:	0c 00       	.word	0x000c	; ????
  32:	00 00       	nop
  34:	00 00       	nop
  36:	00 00       	nop
  38:	b8 08       	sbc	r11, r8
  3a:	00 00       	nop
  3c:	16 00       	.word	0x0016	; ????
  3e:	00 00       	nop
  40:	0c 00       	.word	0x000c	; ????
  42:	00 00       	nop
  44:	00 00       	nop
  46:	00 00       	nop
  48:	ce 08       	sbc	r12, r14
  4a:	00 00       	nop
  4c:	92 00       	.word	0x0092	; ????
  4e:	00 00       	nop
  50:	0c 00       	.word	0x000c	; ????
  52:	00 00       	nop
  54:	00 00       	nop
  56:	00 00       	nop
  58:	60 09       	sbc	r22, r0
  5a:	00 00       	nop
  5c:	14 00       	.word	0x0014	; ????
  5e:	00 00       	nop
  60:	0c 00       	.word	0x000c	; ????
  62:	00 00       	nop
  64:	00 00       	nop
  66:	00 00       	nop
  68:	74 09       	sbc	r23, r4
  6a:	00 00       	nop
  6c:	14 00       	.word	0x0014	; ????
  6e:	00 00       	nop
  70:	0c 00       	.word	0x000c	; ????
  72:	00 00       	nop
  74:	00 00       	nop
  76:	00 00       	nop
  78:	88 09       	sbc	r24, r8
  7a:	00 00       	nop
  7c:	26 00       	.word	0x0026	; ????
  7e:	00 00       	nop
  80:	0c 00       	.word	0x000c	; ????
  82:	00 00       	nop
  84:	00 00       	nop
  86:	00 00       	nop
  88:	ae 09       	sbc	r26, r14
  8a:	00 00       	nop
  8c:	16 00       	.word	0x0016	; ????
  8e:	00 00       	nop
  90:	0c 00       	.word	0x000c	; ????
  92:	00 00       	nop
  94:	00 00       	nop
  96:	00 00       	nop
  98:	c4 09       	sbc	r28, r4
  9a:	00 00       	nop
  9c:	4a 00       	.word	0x004a	; ????
  9e:	00 00       	nop
  a0:	0c 00       	.word	0x000c	; ????
  a2:	00 00       	nop
  a4:	00 00       	nop
  a6:	00 00       	nop
  a8:	0e 0a       	sbc	r0, r30
  aa:	00 00       	nop
  ac:	1e 00       	.word	0x001e	; ????
  ae:	00 00       	nop
  b0:	0c 00       	.word	0x000c	; ????
  b2:	00 00       	nop
  b4:	00 00       	nop
  b6:	00 00       	nop
  b8:	2c 0a       	sbc	r2, r28
  ba:	00 00       	nop
  bc:	1e 00       	.word	0x001e	; ????
  be:	00 00       	nop
  c0:	0c 00       	.word	0x000c	; ????
  c2:	00 00       	nop
  c4:	00 00       	nop
  c6:	00 00       	nop
  c8:	4a 0a       	sbc	r4, r26
  ca:	00 00       	nop
  cc:	c2 01       	movw	r24, r4
  ce:	00 00       	nop
  d0:	0c 00       	.word	0x000c	; ????
  d2:	00 00       	nop
  d4:	00 00       	nop
  d6:	00 00       	nop
  d8:	0c 0c       	add	r0, r12
  da:	00 00       	nop
  dc:	3e 00       	.word	0x003e	; ????
  de:	00 00       	nop
  e0:	0c 00       	.word	0x000c	; ????
  e2:	00 00       	nop
  e4:	00 00       	nop
  e6:	00 00       	nop
  e8:	4a 0c       	add	r4, r10
  ea:	00 00       	nop
  ec:	28 00       	.word	0x0028	; ????
	...

Disassembly of section .debug_str:

00000000 <.debug_str>:
   0:	47 4e       	sbci	r20, 0xE7	; 231
   2:	55 20       	and	r5, r5
   4:	43 20       	and	r4, r3
   6:	34 2e       	mov	r3, r20
   8:	33 2e       	mov	r3, r19
   a:	32 00       	.word	0x0032	; ????
   c:	66 72       	andi	r22, 0x26	; 38
   e:	65 71       	andi	r22, 0x15	; 21
  10:	00 74       	andi	r16, 0x40	; 64
  12:	65 6d       	ori	r22, 0xD5	; 213
  14:	70 00       	.word	0x0070	; ????
  16:	5f 5f       	subi	r21, 0xFF	; 255
  18:	74 6d       	ori	r23, 0xD4	; 212
  1a:	70 00       	.word	0x0070	; ????
  1c:	4c 43       	sbci	r20, 0x3C	; 60
  1e:	44 5f       	subi	r20, 0xF4	; 244
  20:	49 6e       	ori	r20, 0xE9	; 233
  22:	74 00       	.word	0x0074	; ????
  24:	6d 61       	ori	r22, 0x1D	; 29
  26:	69 6e       	ori	r22, 0xE9	; 233
  28:	00 4c       	sbci	r16, 0xC0	; 192
  2a:	43 44       	sbci	r20, 0x43	; 67
  2c:	5f 4e       	sbci	r21, 0xEF	; 239
  2e:	65 77       	andi	r22, 0x75	; 117
  30:	00 5f       	subi	r16, 0xF0	; 240
  32:	5f 63       	ori	r21, 0x3F	; 63
  34:	6f 75       	andi	r22, 0x5F	; 95
  36:	6e 74       	andi	r22, 0x4E	; 78
  38:	00 5f       	subi	r16, 0xF0	; 240
  3a:	64 65       	ori	r22, 0x54	; 84
  3c:	6c 61       	ori	r22, 0x1C	; 28
  3e:	79 5f       	subi	r23, 0xF9	; 249
  40:	6c 6f       	ori	r22, 0xFC	; 252
  42:	6f 70       	andi	r22, 0x0F	; 15
  44:	5f 31       	cpi	r21, 0x1F	; 31
  46:	00 5f       	subi	r16, 0xF0	; 240
  48:	64 65       	ori	r22, 0x54	; 84
  4a:	6c 61       	ori	r22, 0x1C	; 28
  4c:	79 5f       	subi	r23, 0xF9	; 249
  4e:	6c 6f       	ori	r22, 0xFC	; 252
  50:	6f 70       	andi	r22, 0x0F	; 15
  52:	5f 32       	cpi	r21, 0x2F	; 47
  54:	00 5f       	subi	r16, 0xF0	; 240
  56:	5f 69       	ori	r21, 0x9F	; 159
  58:	6f 62       	ori	r22, 0x2F	; 47
  5a:	00 75       	andi	r16, 0x50	; 80
  5c:	69 6e       	ori	r22, 0xE9	; 233
  5e:	74 38       	cpi	r23, 0x84	; 132
  60:	5f 74       	andi	r21, 0x4F	; 79
  62:	00 4c       	sbci	r16, 0xC0	; 192
  64:	43 44       	sbci	r20, 0x43	; 67
  66:	5f 58       	subi	r21, 0x8F	; 143
  68:	59 00       	.word	0x0059	; ????
  6a:	5f 5f       	subi	r21, 0xFF	; 255
  6c:	61 64       	ori	r22, 0x41	; 65
  6e:	64 72       	andi	r22, 0x24	; 36
  70:	31 36       	cpi	r19, 0x61	; 97
  72:	00 5f       	subi	r16, 0xF0	; 240
  74:	5f 76       	andi	r21, 0x6F	; 111
  76:	65 63       	ori	r22, 0x35	; 53
  78:	74 6f       	ori	r23, 0xF4	; 244
  7a:	72 5f       	subi	r23, 0xF2	; 242
  7c:	32 00       	.word	0x0032	; ????
  7e:	73 74       	andi	r23, 0x43	; 67
  80:	61 72       	andi	r22, 0x21	; 33
  82:	74 44       	sbci	r23, 0x44	; 68
  84:	65 62       	ori	r22, 0x25	; 37
  86:	75 67       	ori	r23, 0x75	; 117
  88:	00 5f       	subi	r16, 0xF0	; 240
  8a:	5f 76       	andi	r21, 0x6F	; 111
  8c:	65 63       	ori	r22, 0x35	; 53
  8e:	74 6f       	ori	r23, 0xF4	; 244
  90:	72 5f       	subi	r23, 0xF2	; 242
  92:	39 00       	.word	0x0039	; ????
  94:	6c 6f       	ori	r22, 0xFC	; 252
  96:	6e 67       	ori	r22, 0x7E	; 126
  98:	20 6c       	ori	r18, 0xC0	; 192
  9a:	6f 6e       	ori	r22, 0xEF	; 239
  9c:	67 20       	and	r6, r7
  9e:	69 6e       	ori	r22, 0xE9	; 233
  a0:	74 00       	.word	0x0074	; ????
  a2:	5f 64       	ori	r21, 0x4F	; 79
  a4:	65 6c       	ori	r22, 0xC5	; 197
  a6:	61 79       	andi	r22, 0x91	; 145
  a8:	5f 6d       	ori	r21, 0xDF	; 223
  aa:	73 00       	.word	0x0073	; ????
  ac:	43 3a       	cpi	r20, 0xA3	; 163
  ae:	5c 41       	sbci	r21, 0x1C	; 28
  b0:	56 52       	subi	r21, 0x26	; 38
  b2:	5c 61       	ori	r21, 0x1C	; 28
  b4:	76 72       	andi	r23, 0x26	; 38
  b6:	5f 6d       	ori	r21, 0xDF	; 223
  b8:	65 67       	ori	r22, 0x75	; 117
  ba:	61 38       	cpi	r22, 0x81	; 129
  bc:	5f 68       	ori	r21, 0x8F	; 143
  be:	63 31       	cpi	r22, 0x13	; 19
  c0:	36 31       	cpi	r19, 0x16	; 22
  c2:	5f 63       	ori	r21, 0x3F	; 63
  c4:	6f 75       	andi	r22, 0x5F	; 95
  c6:	6e 74       	andi	r22, 0x4E	; 78
  c8:	65 72       	andi	r22, 0x25	; 37
  ca:	5c 64       	ori	r21, 0x4C	; 76
  cc:	65 62       	ori	r22, 0x25	; 37
  ce:	75 67       	ori	r23, 0x75	; 117
  d0:	00 72       	andi	r16, 0x20	; 32
  d2:	65 61       	ori	r22, 0x15	; 21
  d4:	64 48       	sbci	r22, 0x84	; 132
  d6:	43 31       	cpi	r20, 0x13	; 19
  d8:	36 31       	cpi	r19, 0x16	; 22
  da:	00 6c       	ori	r16, 0xC0	; 192
  dc:	63 64       	ori	r22, 0x43	; 67
  de:	5f 73       	andi	r21, 0x3F	; 63
  e0:	74 64       	ori	r23, 0x44	; 68
  e2:	6f 75       	andi	r22, 0x5F	; 95
  e4:	74 00       	.word	0x0074	; ????
  e6:	75 6e       	ori	r23, 0xE5	; 229
  e8:	73 69       	ori	r23, 0x93	; 147
  ea:	67 6e       	ori	r22, 0xE7	; 231
  ec:	65 64       	ori	r22, 0x45	; 69
  ee:	20 63       	ori	r18, 0x30	; 48
  f0:	68 61       	ori	r22, 0x18	; 24
  f2:	72 00       	.word	0x0072	; ????
  f4:	5f 5f       	subi	r21, 0xFF	; 255
  f6:	66 69       	ori	r22, 0x96	; 150
  f8:	6c 65       	ori	r22, 0x5C	; 92
  fa:	00 2e       	mov	r0, r16
  fc:	2e 2f       	mov	r18, r30
  fe:	6d 61       	ori	r22, 0x1D	; 29
 100:	69 6e       	ori	r22, 0xE9	; 233
 102:	2e 63       	ori	r18, 0x3E	; 62
 104:	00 66       	ori	r16, 0x60	; 96
 106:	6c 61       	ori	r22, 0x1C	; 28
 108:	67 73       	andi	r22, 0x37	; 55
 10a:	00 6c       	ori	r16, 0xC0	; 192
 10c:	6f 6e       	ori	r22, 0xEF	; 239
 10e:	67 20       	and	r6, r7
 110:	6c 6f       	ori	r22, 0xFC	; 252
 112:	6e 67       	ori	r22, 0x7E	; 126
 114:	20 75       	andi	r18, 0x50	; 80
 116:	6e 73       	andi	r22, 0x3E	; 62
 118:	69 67       	ori	r22, 0x79	; 121
 11a:	6e 65       	ori	r22, 0x5E	; 94
 11c:	64 20       	and	r6, r4
 11e:	69 6e       	ori	r22, 0xE9	; 233
 120:	74 00       	.word	0x0074	; ????
 122:	75 69       	ori	r23, 0x95	; 149
 124:	6e 74       	andi	r22, 0x4E	; 78
 126:	33 32       	cpi	r19, 0x23	; 35
 128:	5f 74       	andi	r21, 0x4F	; 79
 12a:	00 75       	andi	r16, 0x50	; 80
 12c:	69 6e       	ori	r22, 0xE9	; 233
 12e:	74 31       	cpi	r23, 0x14	; 20
 130:	36 5f       	subi	r19, 0xF6	; 246
 132:	74 00       	.word	0x0074	; ????
 134:	5f 5f       	subi	r21, 0xFF	; 255
 136:	72 65       	ori	r23, 0x52	; 82
 138:	73 75       	andi	r23, 0x53	; 83
 13a:	6c 74       	andi	r22, 0x4C	; 76
 13c:	00 73       	andi	r16, 0x30	; 48
 13e:	74 72       	andi	r23, 0x24	; 36
 140:	65 61       	ori	r22, 0x15	; 21
 142:	6d 00       	.word	0x006d	; ????
 144:	75 6e       	ori	r23, 0xE5	; 229
 146:	67 65       	ori	r22, 0x57	; 87
 148:	74 00       	.word	0x0074	; ????
 14a:	63 42       	sbci	r22, 0x23	; 35
 14c:	75 66       	ori	r23, 0x65	; 101
 14e:	66 65       	ori	r22, 0x56	; 86
 150:	72 00       	.word	0x0072	; ????
 152:	75 64       	ori	r23, 0x45	; 69
 154:	61 74       	andi	r22, 0x41	; 65
 156:	61 00       	.word	0x0061	; ????
 158:	4c 43       	sbci	r20, 0x3C	; 60
 15a:	44 5f       	subi	r20, 0xF4	; 244
 15c:	49 6e       	ori	r20, 0xE9	; 233
 15e:	69 74       	andi	r22, 0x49	; 73
 160:	00 43       	sbci	r16, 0x30	; 48
 162:	6f 75       	andi	r22, 0x5F	; 95
 164:	6e 74       	andi	r22, 0x4E	; 78
 166:	65 72       	andi	r22, 0x25	; 37
 168:	00 72       	andi	r16, 0x20	; 32
 16a:	65 73       	andi	r22, 0x35	; 53
 16c:	65 74       	andi	r22, 0x45	; 69
 16e:	48 43       	sbci	r20, 0x38	; 56
 170:	31 36       	cpi	r19, 0x61	; 97
 172:	31 00       	.word	0x0031	; ????
 174:	64 6f       	ori	r22, 0xF4	; 244
 176:	75 62       	ori	r23, 0x25	; 37
 178:	6c 65       	ori	r22, 0x5C	; 92
 17a:	00 70       	andi	r16, 0x00	; 0
 17c:	75 6c       	ori	r23, 0xC5	; 197
 17e:	73 65       	ori	r23, 0x53	; 83
 180:	48 43       	sbci	r20, 0x38	; 56
 182:	31 36       	cpi	r19, 0x61	; 97
 184:	31 00       	.word	0x0031	; ????
 186:	5f 5f       	subi	r21, 0xFF	; 255
 188:	76 65       	ori	r23, 0x56	; 86
 18a:	63 74       	andi	r22, 0x43	; 67
 18c:	6f 72       	andi	r22, 0x2F	; 47
 18e:	5f 31       	cpi	r21, 0x1F	; 31
 190:	00 73       	andi	r16, 0x30	; 48
 192:	69 7a       	andi	r22, 0xA9	; 169
 194:	65 00       	.word	0x0065	; ????
 196:	4c 43       	sbci	r20, 0x3C	; 60
 198:	44 34       	cpi	r20, 0x44	; 68
 19a:	5f 53       	subi	r21, 0x3F	; 63
 19c:	65 6e       	ori	r22, 0xE5	; 229
 19e:	64 00       	.word	0x0064	; ????
 1a0:	6c 63       	ori	r22, 0x3C	; 60
 1a2:	64 5f       	subi	r22, 0xF4	; 244
 1a4:	70 75       	andi	r23, 0x50	; 80
 1a6:	74 63       	ori	r23, 0x34	; 52
 1a8:	68 61       	ori	r22, 0x18	; 24
 1aa:	72 00       	.word	0x0072	; ????
 1ac:	70 6f       	ori	r23, 0xF0	; 240
 1ae:	69 6e       	ori	r22, 0xE9	; 233
 1b0:	74 65       	ori	r23, 0x54	; 84
 1b2:	72 00       	.word	0x0072	; ????
 1b4:	5f 5f       	subi	r21, 0xFF	; 255
 1b6:	6d 73       	andi	r22, 0x3D	; 61
 1b8:	00 5f       	subi	r16, 0xF0	; 240
 1ba:	5f 74       	andi	r21, 0x4F	; 79
 1bc:	69 63       	ori	r22, 0x39	; 57
 1be:	6b 73       	andi	r22, 0x3B	; 59
 1c0:	00 5f       	subi	r16, 0xF0	; 240
 1c2:	64 65       	ori	r22, 0x54	; 84
 1c4:	6c 61       	ori	r22, 0x1C	; 28
 1c6:	79 5f       	subi	r23, 0xF9	; 249
 1c8:	75 73       	andi	r23, 0x35	; 53
 1ca:	00 66       	ori	r16, 0x60	; 96
 1cc:	6c 61       	ori	r22, 0x1C	; 28
 1ce:	67 00       	.word	0x0067	; ????
 1d0:	62 75       	andi	r22, 0x52	; 82
 1d2:	79 5f       	subi	r23, 0xF9	; 249
 1d4:	6d 73       	andi	r22, 0x3D	; 61
 1d6:	67 00       	.word	0x0067	; ????
 1d8:	45 76       	andi	r20, 0x65	; 101
 1da:	65 6e       	ori	r22, 0xE5	; 229
 1dc:	74 00       	.word	0x0074	; ????
 1de:	68 65       	ori	r22, 0x58	; 88
 1e0:	6c 6c       	ori	r22, 0xCC	; 204
 1e2:	6f 5f       	subi	r22, 0xFF	; 255
 1e4:	6d 73       	andi	r22, 0x3D	; 61
 1e6:	67 00       	.word	0x0067	; ????
 1e8:	4c 43       	sbci	r20, 0x3C	; 60
 1ea:	44 5f       	subi	r20, 0xF4	; 244
 1ec:	70 67       	ori	r23, 0x70	; 112
 1ee:	6d 5f       	subi	r22, 0xFD	; 253
 1f0:	74 65       	ori	r23, 0x54	; 84
 1f2:	78 74       	andi	r23, 0x48	; 72
 1f4:	00 5f       	subi	r16, 0xF0	; 240
 1f6:	5f 75       	andi	r21, 0x5F	; 95
 1f8:	73 00       	.word	0x0073	; ????

Disassembly of section .debug_loc:

00000000 <.debug_loc>:
   0:	00 00       	nop
   2:	00 00       	nop
   4:	34 00       	.word	0x0034	; ????
   6:	00 00       	nop
   8:	01 00       	.word	0x0001	; ????
   a:	68 34       	cpi	r22, 0x48	; 72
   c:	00 00       	nop
   e:	00 4e       	sbci	r16, 0xE0	; 224
  10:	00 00       	nop
  12:	00 01       	movw	r0, r0
  14:	00 63       	ori	r16, 0x30	; 48
	...
  1e:	12 00       	.word	0x0012	; ????
  20:	00 00       	nop
  22:	1a 00       	.word	0x001a	; ????
  24:	00 00       	nop
  26:	01 00       	.word	0x0001	; ????
  28:	62 1a       	sub	r6, r18
  2a:	00 00       	nop
  2c:	00 1c       	adc	r0, r0
  2e:	00 00       	nop
  30:	00 01       	movw	r0, r0
  32:	00 69       	ori	r16, 0x90	; 144
  34:	1c 00       	.word	0x001c	; ????
  36:	00 00       	nop
  38:	20 00       	.word	0x0020	; ????
  3a:	00 00       	nop
  3c:	01 00       	.word	0x0001	; ????
  3e:	62 20       	and	r6, r2
  40:	00 00       	nop
  42:	00 24       	eor	r0, r0
  44:	00 00       	nop
  46:	00 01       	movw	r0, r0
  48:	00 69       	ori	r16, 0x90	; 144
  4a:	34 00       	.word	0x0034	; ????
  4c:	00 00       	nop
  4e:	46 00       	.word	0x0046	; ????
  50:	00 00       	nop
  52:	01 00       	.word	0x0001	; ????
  54:	68 00       	.word	0x0068	; ????
  56:	00 00       	nop
  58:	00 00       	nop
  5a:	00 00       	nop
  5c:	00 06       	cpc	r0, r16
  5e:	00 00       	nop
  60:	00 2e       	mov	r0, r16
  62:	00 00       	nop
  64:	00 06       	cpc	r0, r16
  66:	00 6e       	ori	r16, 0xE0	; 224
  68:	93 01       	movw	r18, r6
  6a:	6f 93       	push	r22
  6c:	01 00       	.word	0x0001	; ????
  6e:	00 00       	nop
  70:	00 00       	nop
  72:	00 00       	nop
  74:	00 4e       	sbci	r16, 0xE0	; 224
  76:	00 00       	nop
  78:	00 5a       	subi	r16, 0xA0	; 160
  7a:	00 00       	nop
  7c:	00 06       	cpc	r0, r16
  7e:	00 68       	ori	r16, 0x80	; 128
  80:	93 01       	movw	r18, r6
  82:	69 93       	st	Y+, r22
  84:	01 5a       	subi	r16, 0xA1	; 161
  86:	00 00       	nop
  88:	00 70       	andi	r16, 0x00	; 0
  8a:	00 00       	nop
  8c:	00 06       	cpc	r0, r16
  8e:	00 6c       	ori	r16, 0xC0	; 192
  90:	93 01       	movw	r18, r6
  92:	6d 93       	st	X+, r22
  94:	01 00       	.word	0x0001	; ????
  96:	00 00       	nop
  98:	00 00       	nop
  9a:	00 00       	nop
  9c:	00 58       	subi	r16, 0x80	; 128
  9e:	00 00       	nop
  a0:	00 72       	andi	r16, 0x20	; 32
  a2:	00 00       	nop
  a4:	00 01       	movw	r0, r0
  a6:	00 61       	ori	r16, 0x10	; 16
	...
  b0:	5a 00       	.word	0x005a	; ????
  b2:	00 00       	nop
  b4:	60 00       	.word	0x0060	; ????
  b6:	00 00       	nop
  b8:	06 00       	.word	0x0006	; ????
  ba:	6e 93       	st	-X, r22
  bc:	01 6f       	ori	r16, 0xF1	; 241
  be:	93 01       	movw	r18, r6
  c0:	62 00       	.word	0x0062	; ????
  c2:	00 00       	nop
  c4:	74 00       	.word	0x0074	; ????
  c6:	00 00       	nop
  c8:	06 00       	.word	0x0006	; ????
  ca:	6e 93       	st	-X, r22
  cc:	01 6f       	ori	r16, 0xF1	; 241
  ce:	93 01       	movw	r18, r6
	...
  d8:	5a 00       	.word	0x005a	; ????
  da:	00 00       	nop
  dc:	60 00       	.word	0x0060	; ????
  de:	00 00       	nop
  e0:	01 00       	.word	0x0001	; ????
  e2:	68 68       	ori	r22, 0x88	; 136
  e4:	00 00       	nop
  e6:	00 74       	andi	r16, 0x40	; 64
  e8:	00 00       	nop
  ea:	00 01       	movw	r0, r0
  ec:	00 68       	ori	r16, 0x80	; 128
	...
  f6:	74 00       	.word	0x0074	; ????
  f8:	00 00       	nop
  fa:	7a 00       	.word	0x007a	; ????
  fc:	00 00       	nop
  fe:	01 00       	.word	0x0001	; ????
 100:	68 7e       	andi	r22, 0xE8	; 232
 102:	00 00       	nop
 104:	00 84       	ldd	r0, Z+8	; 0x08
 106:	00 00       	nop
 108:	00 01       	movw	r0, r0
 10a:	00 68       	ori	r16, 0x80	; 128
 10c:	88 00       	.word	0x0088	; ????
 10e:	00 00       	nop
 110:	8a 00       	.word	0x008a	; ????
 112:	00 00       	nop
 114:	01 00       	.word	0x0001	; ????
 116:	68 00       	.word	0x0068	; ????
 118:	00 00       	nop
 11a:	00 00       	nop
 11c:	00 00       	nop
 11e:	00 74       	andi	r16, 0x40	; 64
 120:	00 00       	nop
 122:	00 7c       	andi	r16, 0xC0	; 192
 124:	00 00       	nop
 126:	00 01       	movw	r0, r0
 128:	00 66       	ori	r16, 0x60	; 96
 12a:	7e 00       	.word	0x007e	; ????
 12c:	00 00       	nop
 12e:	86 00       	.word	0x0086	; ????
 130:	00 00       	nop
 132:	01 00       	.word	0x0001	; ????
 134:	66 88       	ldd	r6, Z+22	; 0x16
 136:	00 00       	nop
 138:	00 8a       	std	Z+16, r0	; 0x10
 13a:	00 00       	nop
 13c:	00 01       	movw	r0, r0
 13e:	00 66       	ori	r16, 0x60	; 96
	...
 148:	1c 01       	movw	r2, r24
 14a:	00 00       	nop
 14c:	22 01       	movw	r4, r4
 14e:	00 00       	nop
 150:	01 00       	.word	0x0001	; ????
 152:	68 26       	eor	r6, r24
 154:	01 00       	.word	0x0001	; ????
 156:	00 2a       	or	r0, r16
 158:	01 00       	.word	0x0001	; ????
 15a:	00 01       	movw	r0, r0
 15c:	00 68       	ori	r16, 0x80	; 128
	...
 166:	1c 01       	movw	r2, r24
 168:	00 00       	nop
 16a:	24 01       	movw	r4, r8
 16c:	00 00       	nop
 16e:	06 00       	.word	0x0006	; ????
 170:	66 93       	.word	0x9366	; ????
 172:	01 67       	ori	r16, 0x71	; 113
 174:	93 01       	movw	r18, r6
 176:	26 01       	movw	r4, r12
 178:	00 00       	nop
 17a:	28 01       	movw	r4, r16
 17c:	00 00       	nop
 17e:	06 00       	.word	0x0006	; ????
 180:	66 93       	.word	0x9366	; ????
 182:	01 67       	ori	r16, 0x71	; 113
 184:	93 01       	movw	r18, r6
	...
 18e:	52 01       	movw	r10, r4
 190:	00 00       	nop
 192:	5a 01       	movw	r10, r20
 194:	00 00       	nop
 196:	06 00       	.word	0x0006	; ????
 198:	6e 93       	st	-X, r22
 19a:	01 6f       	ori	r16, 0xF1	; 241
 19c:	93 01       	movw	r18, r6
	...
 1a6:	4e 01       	movw	r8, r28
 1a8:	00 00       	nop
 1aa:	52 01       	movw	r10, r4
 1ac:	00 00       	nop
 1ae:	06 00       	.word	0x0006	; ????
 1b0:	6e 93       	st	-X, r22
 1b2:	01 6f       	ori	r16, 0xF1	; 241
 1b4:	93 01       	movw	r18, r6
 1b6:	5a 01       	movw	r10, r20
 1b8:	00 00       	nop
 1ba:	6a 01       	movw	r12, r20
 1bc:	00 00       	nop
 1be:	06 00       	.word	0x0006	; ????
 1c0:	6e 93       	st	-X, r22
 1c2:	01 6f       	ori	r16, 0xF1	; 241
 1c4:	93 01       	movw	r18, r6
	...
 1ce:	72 01       	movw	r14, r4
 1d0:	00 00       	nop
 1d2:	7e 01       	movw	r14, r28
 1d4:	00 00       	nop
 1d6:	06 00       	.word	0x0006	; ????
 1d8:	68 93       	.word	0x9368	; ????
 1da:	01 69       	ori	r16, 0x91	; 145
 1dc:	93 01       	movw	r18, r6
	...
 1e6:	2e 02       	muls	r18, r30
 1e8:	00 00       	nop
 1ea:	3e 02       	muls	r19, r30
 1ec:	00 00       	nop
 1ee:	06 00       	.word	0x0006	; ????
 1f0:	68 93       	.word	0x9368	; ????
 1f2:	01 69       	ori	r16, 0x91	; 145
 1f4:	93 01       	movw	r18, r6
	...
 1fe:	34 02       	muls	r19, r20
 200:	00 00       	nop
 202:	6c 02       	muls	r22, r28
 204:	00 00       	nop
 206:	06 00       	.word	0x0006	; ????
 208:	6e 93       	st	-X, r22
 20a:	01 6f       	ori	r16, 0xF1	; 241
 20c:	93 01       	movw	r18, r6
	...
 216:	44 02       	muls	r20, r20
 218:	00 00       	nop
 21a:	6a 02       	muls	r22, r26
 21c:	00 00       	nop
 21e:	06 00       	.word	0x0006	; ????
 220:	62 93       	st	-Z, r22
 222:	01 63       	ori	r16, 0x31	; 49
 224:	93 01       	movw	r18, r6
	...
 22e:	4a 02       	muls	r20, r26
 230:	00 00       	nop
 232:	56 02       	muls	r21, r22
 234:	00 00       	nop
 236:	06 00       	.word	0x0006	; ????
 238:	68 93       	.word	0x9368	; ????
 23a:	01 69       	ori	r16, 0x91	; 145
 23c:	93 01       	movw	r18, r6
	...
 246:	5c 02       	muls	r21, r28
 248:	00 00       	nop
 24a:	66 02       	muls	r22, r22
 24c:	00 00       	nop
 24e:	06 00       	.word	0x0006	; ????
 250:	68 93       	.word	0x9368	; ????
 252:	01 69       	ori	r16, 0x91	; 145
 254:	93 01       	movw	r18, r6
	...
 25e:	66 02       	muls	r22, r22
 260:	00 00       	nop
 262:	76 02       	muls	r23, r22
 264:	00 00       	nop
 266:	06 00       	.word	0x0006	; ????
 268:	68 93       	.word	0x9368	; ????
 26a:	01 69       	ori	r16, 0x91	; 145
 26c:	93 01       	movw	r18, r6
	...
 276:	6c 02       	muls	r22, r28
 278:	00 00       	nop
 27a:	7a 02       	muls	r23, r26
 27c:	00 00       	nop
 27e:	06 00       	.word	0x0006	; ????
 280:	6e 93       	st	-X, r22
 282:	01 6f       	ori	r16, 0xF1	; 241
 284:	93 01       	movw	r18, r6
	...
 28e:	1a 03       	fmul	r17, r18
 290:	00 00       	nop
 292:	28 03       	fmul	r18, r16
 294:	00 00       	nop
 296:	06 00       	.word	0x0006	; ????
 298:	68 93       	.word	0x9368	; ????
 29a:	01 69       	ori	r16, 0x91	; 145
 29c:	93 01       	movw	r18, r6
 29e:	c6 03       	fmuls	r20, r22
 2a0:	00 00       	nop
 2a2:	c8 03       	fmulsu	r20, r16
 2a4:	00 00       	nop
 2a6:	06 00       	.word	0x0006	; ????
 2a8:	68 93       	.word	0x9368	; ????
 2aa:	01 69       	ori	r16, 0x91	; 145
 2ac:	93 01       	movw	r18, r6
	...
 2b6:	1c 03       	fmul	r17, r20
 2b8:	00 00       	nop
 2ba:	3a 03       	fmul	r19, r18
 2bc:	00 00       	nop
 2be:	06 00       	.word	0x0006	; ????
 2c0:	6e 93       	st	-X, r22
 2c2:	01 6f       	ori	r16, 0xF1	; 241
 2c4:	93 01       	movw	r18, r6
	...
 2ce:	28 03       	fmul	r18, r16
 2d0:	00 00       	nop
 2d2:	30 03       	mulsu	r19, r16
 2d4:	00 00       	nop
 2d6:	06 00       	.word	0x0006	; ????
 2d8:	68 93       	.word	0x9368	; ????
 2da:	01 69       	ori	r16, 0x91	; 145
 2dc:	93 01       	movw	r18, r6
	...
 2e6:	30 03       	mulsu	r19, r16
 2e8:	00 00       	nop
 2ea:	38 03       	fmul	r19, r16
 2ec:	00 00       	nop
 2ee:	06 00       	.word	0x0006	; ????
 2f0:	68 93       	.word	0x9368	; ????
 2f2:	01 69       	ori	r16, 0x91	; 145
 2f4:	93 01       	movw	r18, r6
	...
 2fe:	38 03       	fmul	r19, r16
 300:	00 00       	nop
 302:	4c 03       	fmul	r20, r20
 304:	00 00       	nop
 306:	06 00       	.word	0x0006	; ????
 308:	68 93       	.word	0x9368	; ????
 30a:	01 69       	ori	r16, 0x91	; 145
 30c:	93 01       	movw	r18, r6
 30e:	5c 03       	fmul	r21, r20
 310:	00 00       	nop
 312:	66 03       	mulsu	r22, r22
 314:	00 00       	nop
 316:	06 00       	.word	0x0006	; ????
 318:	68 93       	.word	0x9368	; ????
 31a:	01 69       	ori	r16, 0x91	; 145
 31c:	93 01       	movw	r18, r6
	...
 326:	3a 03       	fmul	r19, r18
 328:	00 00       	nop
 32a:	68 03       	fmul	r22, r16
 32c:	00 00       	nop
 32e:	06 00       	.word	0x0006	; ????
 330:	6e 93       	st	-X, r22
 332:	01 6f       	ori	r16, 0xF1	; 241
 334:	93 01       	movw	r18, r6
	...
 33e:	46 03       	mulsu	r20, r22
 340:	00 00       	nop
 342:	76 03       	mulsu	r23, r22
 344:	00 00       	nop
 346:	06 00       	.word	0x0006	; ????
 348:	62 93       	st	-Z, r22
 34a:	01 63       	ori	r16, 0x31	; 49
 34c:	93 01       	movw	r18, r6
	...
 356:	4c 03       	fmul	r20, r20
 358:	00 00       	nop
 35a:	54 03       	mulsu	r21, r20
 35c:	00 00       	nop
 35e:	06 00       	.word	0x0006	; ????
 360:	68 93       	.word	0x9368	; ????
 362:	01 69       	ori	r16, 0x91	; 145
 364:	93 01       	movw	r18, r6
	...
 36e:	48 03       	fmul	r20, r16
 370:	00 00       	nop
 372:	4c 03       	fmul	r20, r20
 374:	00 00       	nop
 376:	06 00       	.word	0x0006	; ????
 378:	68 93       	.word	0x9368	; ????
 37a:	01 69       	ori	r16, 0x91	; 145
 37c:	93 01       	movw	r18, r6
 37e:	54 03       	mulsu	r21, r20
 380:	00 00       	nop
 382:	66 03       	mulsu	r22, r22
 384:	00 00       	nop
 386:	06 00       	.word	0x0006	; ????
 388:	68 93       	.word	0x9368	; ????
 38a:	01 69       	ori	r16, 0x91	; 145
 38c:	93 01       	movw	r18, r6
	...
 396:	66 03       	mulsu	r22, r22
 398:	00 00       	nop
 39a:	72 03       	mulsu	r23, r18
 39c:	00 00       	nop
 39e:	06 00       	.word	0x0006	; ????
 3a0:	68 93       	.word	0x9368	; ????
 3a2:	01 69       	ori	r16, 0x91	; 145
 3a4:	93 01       	movw	r18, r6
	...
 3ae:	68 03       	fmul	r22, r16
 3b0:	00 00       	nop
 3b2:	76 03       	mulsu	r23, r22
 3b4:	00 00       	nop
 3b6:	06 00       	.word	0x0006	; ????
 3b8:	6e 93       	st	-X, r22
 3ba:	01 6f       	ori	r16, 0xF1	; 241
 3bc:	93 01       	movw	r18, r6
	...
 3c6:	06 04       	cpc	r0, r6
 3c8:	00 00       	nop
 3ca:	12 04       	cpc	r1, r2
 3cc:	00 00       	nop
 3ce:	0c 00       	.word	0x000c	; ????
 3d0:	66 93       	.word	0x9366	; ????
 3d2:	01 67       	ori	r16, 0x71	; 113
 3d4:	93 01       	movw	r18, r6
 3d6:	68 93       	.word	0x9368	; ????
 3d8:	01 69       	ori	r16, 0x91	; 145
 3da:	93 01       	movw	r18, r6
	...
 3e4:	14 04       	cpc	r1, r4
 3e6:	00 00       	nop
 3e8:	16 04       	cpc	r1, r6
 3ea:	00 00       	nop
 3ec:	01 00       	.word	0x0001	; ????
 3ee:	61 16       	cp	r6, r17
 3f0:	04 00       	.word	0x0004	; ????
 3f2:	00 18       	sub	r0, r0
 3f4:	04 00       	.word	0x0004	; ????
 3f6:	00 06       	cpc	r0, r16
 3f8:	00 6e       	ori	r16, 0xE0	; 224
 3fa:	93 01       	movw	r18, r6
 3fc:	6f 93       	push	r22
 3fe:	01 18       	sub	r0, r1
 400:	04 00       	.word	0x0004	; ????
 402:	00 1c       	adc	r0, r0
 404:	04 00       	.word	0x0004	; ????
 406:	00 06       	cpc	r0, r16
 408:	00 61       	ori	r16, 0x10	; 16
 40a:	93 01       	movw	r18, r6
 40c:	6f 93       	push	r22
 40e:	01 1c       	adc	r0, r1
 410:	04 00       	.word	0x0004	; ????
 412:	00 20       	and	r0, r0
 414:	04 00       	.word	0x0004	; ????
 416:	00 01       	movw	r0, r0
 418:	00 61       	ori	r16, 0x10	; 16
 41a:	20 04       	cpc	r2, r0
 41c:	00 00       	nop
 41e:	2e 04       	cpc	r2, r14
 420:	00 00       	nop
 422:	06 00       	.word	0x0006	; ????
 424:	6e 93       	st	-X, r22
 426:	01 6f       	ori	r16, 0xF1	; 241
 428:	93 01       	movw	r18, r6
	...

Disassembly of section .debug_ranges:

00000000 <.debug_ranges>:
   0:	48 01       	movw	r8, r16
   2:	00 00       	nop
   4:	4e 01       	movw	r8, r28
   6:	00 00       	nop
   8:	50 01       	movw	r10, r0
   a:	00 00       	nop
   c:	56 01       	movw	r10, r12
	...
  16:	00 00       	nop
  18:	48 01       	movw	r8, r16
  1a:	00 00       	nop
  1c:	4e 01       	movw	r8, r28
  1e:	00 00       	nop
  20:	50 01       	movw	r10, r0
  22:	00 00       	nop
  24:	56 01       	movw	r10, r12
	...
  2e:	00 00       	nop
  30:	48 01       	movw	r8, r16
  32:	00 00       	nop
  34:	4e 01       	movw	r8, r28
  36:	00 00       	nop
  38:	50 01       	movw	r10, r0
  3a:	00 00       	nop
  3c:	56 01       	movw	r10, r12
	...
  46:	00 00       	nop
  48:	fc 02       	muls	r31, r28
  4a:	00 00       	nop
  4c:	04 03       	mulsu	r16, r20
  4e:	00 00       	nop
  50:	1a 03       	fmul	r17, r18
  52:	00 00       	nop
  54:	24 03       	mulsu	r18, r20
	...
  5e:	00 00       	nop
  60:	fc 02       	muls	r31, r28
  62:	00 00       	nop
  64:	04 03       	mulsu	r16, r20
  66:	00 00       	nop
  68:	1a 03       	fmul	r17, r18
  6a:	00 00       	nop
  6c:	24 03       	mulsu	r18, r20
	...
  76:	00 00       	nop
  78:	fc 02       	muls	r31, r28
  7a:	00 00       	nop
  7c:	04 03       	mulsu	r16, r20
  7e:	00 00       	nop
  80:	1a 03       	fmul	r17, r18
  82:	00 00       	nop
  84:	20 03       	mulsu	r18, r16
	...
  8e:	00 00       	nop
  90:	04 03       	mulsu	r16, r20
  92:	00 00       	nop
  94:	08 03       	fmul	r16, r16
  96:	00 00       	nop
  98:	24 03       	mulsu	r18, r20
  9a:	00 00       	nop
  9c:	38 03       	fmul	r19, r16
	...
  a6:	00 00       	nop
  a8:	04 03       	mulsu	r16, r20
  aa:	00 00       	nop
  ac:	08 03       	fmul	r16, r16
  ae:	00 00       	nop
  b0:	26 03       	mulsu	r18, r22
  b2:	00 00       	nop
  b4:	2c 03       	fmul	r18, r20
	...
  be:	00 00       	nop
  c0:	04 03       	mulsu	r16, r20
  c2:	00 00       	nop
  c4:	08 03       	fmul	r16, r16
  c6:	00 00       	nop
  c8:	26 03       	mulsu	r18, r22
  ca:	00 00       	nop
  cc:	2c 03       	fmul	r18, r20
	...
  d6:	00 00       	nop
  d8:	04 03       	mulsu	r16, r20
  da:	00 00       	nop
  dc:	08 03       	fmul	r16, r16
  de:	00 00       	nop
  e0:	26 03       	mulsu	r18, r22
  e2:	00 00       	nop
  e4:	2c 03       	fmul	r18, r20
	...
